SF:/home/lucas/calypso/.claude/worktrees/agent-a62ed768/cli/src/app.rs
FN:73,_RNCNCNvNtCsadPz79N6wDl_11calypso_cli3app10run_statuss2_00B7_
FN:491,_RNCNCNvNtCsadPz79N6wDl_11calypso_cli3app18agents_json_report00B7_
FN:313,_RNCNCNvNtCsadPz79N6wDl_11calypso_cli3app18doctor_json_report00B7_
FN:379,_RNCNCNvNtCsadPz79N6wDl_11calypso_cli3app24state_status_json_report00B7_
FN:22,_RNCNvNtCsadPz79N6wDl_11calypso_cli3app10run_doctor0B5_
FN:30,_RNCNvNtCsadPz79N6wDl_11calypso_cli3app10run_status0B5_
FN:57,_RNCNvNtCsadPz79N6wDl_11calypso_cli3app10run_statuss0_0B5_
FN:65,_RNCNvNtCsadPz79N6wDl_11calypso_cli3app10run_statuss1_0B5_
FN:70,_RNCNvNtCsadPz79N6wDl_11calypso_cli3app10run_statuss2_0B5_
FN:54,_RNCNvNtCsadPz79N6wDl_11calypso_cli3app10run_statuss_0B5_
FN:252,_RNCNvNtCsadPz79N6wDl_11calypso_cli3app11run_command0B5_
FN:266,_RNCNvNtCsadPz79N6wDl_11calypso_cli3app11run_commands0_0B5_
FN:265,_RNCNvNtCsadPz79N6wDl_11calypso_cli3app11run_commands_0B5_
FN:506,_RNCNvNtCsadPz79N6wDl_11calypso_cli3app15run_agents_json0B5_
FN:508,_RNCNvNtCsadPz79N6wDl_11calypso_cli3app15run_agents_jsons_0B5_
FN:334,_RNCNvNtCsadPz79N6wDl_11calypso_cli3app15run_doctor_json0B5_
FN:551,_RNCNvNtCsadPz79N6wDl_11calypso_cli3app16run_agents_plain0B5_
FN:488,_RNCNvNtCsadPz79N6wDl_11calypso_cli3app18agents_json_report0B5_
FN:305,_RNCNvNtCsadPz79N6wDl_11calypso_cli3app18doctor_json_report0B5_
FN:318,_RNCNvNtCsadPz79N6wDl_11calypso_cli3app18doctor_json_reports_0B5_
FN:571,_RNCNvNtCsadPz79N6wDl_11calypso_cli3app18run_workflows_show0B5_
FN:572,_RNCNvNtCsadPz79N6wDl_11calypso_cli3app18run_workflows_shows_0B5_
FN:101,_RNCNvNtCsadPz79N6wDl_11calypso_cli3app21render_feature_status0B5_
FN:102,_RNCNvNtCsadPz79N6wDl_11calypso_cli3app21render_feature_statuss_0B5_
FN:410,_RNCNvNtCsadPz79N6wDl_11calypso_cli3app21run_state_status_json0B5_
FN:412,_RNCNvNtCsadPz79N6wDl_11calypso_cli3app21run_state_status_jsons_0B5_
FN:464,_RNCNvNtCsadPz79N6wDl_11calypso_cli3app22run_state_status_plain0B5_
FN:578,_RNCNvNtCsadPz79N6wDl_11calypso_cli3app22run_workflows_validate0B5_
FN:581,_RNCNvNtCsadPz79N6wDl_11calypso_cli3app22run_workflows_validates0_0B5_
FN:580,_RNCNvNtCsadPz79N6wDl_11calypso_cli3app22run_workflows_validates_0B5_
FN:363,_RNCNvNtCsadPz79N6wDl_11calypso_cli3app24state_status_json_report0B5_
FN:204,_RNCNvNtCsadPz79N6wDl_11calypso_cli3app41resolve_current_pull_request_with_program0B5_
FN:21,_RNvNtCsadPz79N6wDl_11calypso_cli3app10run_doctor
FN:28,_RNvNtCsadPz79N6wDl_11calypso_cli3app10run_status
FN:247,_RNvNtCsadPz79N6wDl_11calypso_cli3app11run_command
FN:512,_RNvNtCsadPz79N6wDl_11calypso_cli3app13render_agents
FN:349,_RNvNtCsadPz79N6wDl_11calypso_cli3app15gate_status_str
FN:503,_RNvNtCsadPz79N6wDl_11calypso_cli3app15run_agents_json
FN:333,_RNvNtCsadPz79N6wDl_11calypso_cli3app15run_doctor_json
FN:472,_RNvNtCsadPz79N6wDl_11calypso_cli3app16agent_status_str
FN:165,_RNvNtCsadPz79N6wDl_11calypso_cli3app16checklist_marker
FN:548,_RNvNtCsadPz79N6wDl_11calypso_cli3app16run_agents_plain
FN:169,_RNvNtCsadPz79N6wDl_11calypso_cli3app17gate_status_label
FN:178,_RNvNtCsadPz79N6wDl_11calypso_cli3app17resolve_repo_root
FN:483,_RNvNtCsadPz79N6wDl_11calypso_cli3app18agents_json_report
FN:300,_RNvNtCsadPz79N6wDl_11calypso_cli3app18doctor_json_report
FN:560,_RNvNtCsadPz79N6wDl_11calypso_cli3app18run_workflows_list
FN:569,_RNvNtCsadPz79N6wDl_11calypso_cli3app18run_workflows_show
FN:269,_RNvNtCsadPz79N6wDl_11calypso_cli3app19github_review_label
FN:416,_RNvNtCsadPz79N6wDl_11calypso_cli3app19render_state_status
FN:286,_RNvNtCsadPz79N6wDl_11calypso_cli3app21evidence_status_label
FN:88,_RNvNtCsadPz79N6wDl_11calypso_cli3app21render_feature_status
FN:407,_RNvNtCsadPz79N6wDl_11calypso_cli3app21run_state_status_json
FN:537,_RNvNtCsadPz79N6wDl_11calypso_cli3app21session_display_parts
FN:226,_RNvNtCsadPz79N6wDl_11calypso_cli3app22parse_pull_request_ref
FN:185,_RNvNtCsadPz79N6wDl_11calypso_cli3app22resolve_current_branch
FN:461,_RNvNtCsadPz79N6wDl_11calypso_cli3app22run_state_status_plain
FN:576,_RNvNtCsadPz79N6wDl_11calypso_cli3app22run_workflows_validate
FN:215,_RNvNtCsadPz79N6wDl_11calypso_cli3app24missing_pull_request_ref
FN:359,_RNvNtCsadPz79N6wDl_11calypso_cli3app24state_status_json_report
FN:277,_RNvNtCsadPz79N6wDl_11calypso_cli3app25github_mergeability_label
FN:192,_RNvNtCsadPz79N6wDl_11calypso_cli3app28resolve_current_pull_request
FN:222,_RNvNtCsadPz79N6wDl_11calypso_cli3app29missing_pull_request_evidence
FN:196,_RNvNtCsadPz79N6wDl_11calypso_cli3app41resolve_current_pull_request_with_program
FN:252,_RNCNvNtCsk43tzqYvrEx_11calypso_cli3app11run_command0B5_
FN:266,_RNCNvNtCsk43tzqYvrEx_11calypso_cli3app11run_commands0_0B5_
FN:265,_RNCNvNtCsk43tzqYvrEx_11calypso_cli3app11run_commands_0B5_
FN:73,_RNCNCNvNtCsk43tzqYvrEx_11calypso_cli3app10run_statuss2_00B7_
FN:491,_RNCNCNvNtCsk43tzqYvrEx_11calypso_cli3app18agents_json_report00B7_
FN:313,_RNCNCNvNtCsk43tzqYvrEx_11calypso_cli3app18doctor_json_report00B7_
FN:379,_RNCNCNvNtCsk43tzqYvrEx_11calypso_cli3app24state_status_json_report00B7_
FN:22,_RNCNvNtCsk43tzqYvrEx_11calypso_cli3app10run_doctor0B5_
FN:30,_RNCNvNtCsk43tzqYvrEx_11calypso_cli3app10run_status0B5_
FN:57,_RNCNvNtCsk43tzqYvrEx_11calypso_cli3app10run_statuss0_0B5_
FN:65,_RNCNvNtCsk43tzqYvrEx_11calypso_cli3app10run_statuss1_0B5_
FN:70,_RNCNvNtCsk43tzqYvrEx_11calypso_cli3app10run_statuss2_0B5_
FN:54,_RNCNvNtCsk43tzqYvrEx_11calypso_cli3app10run_statuss_0B5_
FN:506,_RNCNvNtCsk43tzqYvrEx_11calypso_cli3app15run_agents_json0B5_
FN:508,_RNCNvNtCsk43tzqYvrEx_11calypso_cli3app15run_agents_jsons_0B5_
FN:334,_RNCNvNtCsk43tzqYvrEx_11calypso_cli3app15run_doctor_json0B5_
FN:551,_RNCNvNtCsk43tzqYvrEx_11calypso_cli3app16run_agents_plain0B5_
FN:488,_RNCNvNtCsk43tzqYvrEx_11calypso_cli3app18agents_json_report0B5_
FN:305,_RNCNvNtCsk43tzqYvrEx_11calypso_cli3app18doctor_json_report0B5_
FN:318,_RNCNvNtCsk43tzqYvrEx_11calypso_cli3app18doctor_json_reports_0B5_
FN:571,_RNCNvNtCsk43tzqYvrEx_11calypso_cli3app18run_workflows_show0B5_
FN:572,_RNCNvNtCsk43tzqYvrEx_11calypso_cli3app18run_workflows_shows_0B5_
FN:101,_RNCNvNtCsk43tzqYvrEx_11calypso_cli3app21render_feature_status0B5_
FN:102,_RNCNvNtCsk43tzqYvrEx_11calypso_cli3app21render_feature_statuss_0B5_
FN:410,_RNCNvNtCsk43tzqYvrEx_11calypso_cli3app21run_state_status_json0B5_
FN:412,_RNCNvNtCsk43tzqYvrEx_11calypso_cli3app21run_state_status_jsons_0B5_
FN:464,_RNCNvNtCsk43tzqYvrEx_11calypso_cli3app22run_state_status_plain0B5_
FN:578,_RNCNvNtCsk43tzqYvrEx_11calypso_cli3app22run_workflows_validate0B5_
FN:581,_RNCNvNtCsk43tzqYvrEx_11calypso_cli3app22run_workflows_validates0_0B5_
FN:580,_RNCNvNtCsk43tzqYvrEx_11calypso_cli3app22run_workflows_validates_0B5_
FN:363,_RNCNvNtCsk43tzqYvrEx_11calypso_cli3app24state_status_json_report0B5_
FN:204,_RNCNvNtCsk43tzqYvrEx_11calypso_cli3app41resolve_current_pull_request_with_program0B5_
FN:21,_RNvNtCsk43tzqYvrEx_11calypso_cli3app10run_doctor
FN:28,_RNvNtCsk43tzqYvrEx_11calypso_cli3app10run_status
FN:512,_RNvNtCsk43tzqYvrEx_11calypso_cli3app13render_agents
FN:349,_RNvNtCsk43tzqYvrEx_11calypso_cli3app15gate_status_str
FN:503,_RNvNtCsk43tzqYvrEx_11calypso_cli3app15run_agents_json
FN:333,_RNvNtCsk43tzqYvrEx_11calypso_cli3app15run_doctor_json
FN:472,_RNvNtCsk43tzqYvrEx_11calypso_cli3app16agent_status_str
FN:165,_RNvNtCsk43tzqYvrEx_11calypso_cli3app16checklist_marker
FN:548,_RNvNtCsk43tzqYvrEx_11calypso_cli3app16run_agents_plain
FN:483,_RNvNtCsk43tzqYvrEx_11calypso_cli3app18agents_json_report
FN:300,_RNvNtCsk43tzqYvrEx_11calypso_cli3app18doctor_json_report
FN:560,_RNvNtCsk43tzqYvrEx_11calypso_cli3app18run_workflows_list
FN:569,_RNvNtCsk43tzqYvrEx_11calypso_cli3app18run_workflows_show
FN:269,_RNvNtCsk43tzqYvrEx_11calypso_cli3app19github_review_label
FN:416,_RNvNtCsk43tzqYvrEx_11calypso_cli3app19render_state_status
FN:286,_RNvNtCsk43tzqYvrEx_11calypso_cli3app21evidence_status_label
FN:88,_RNvNtCsk43tzqYvrEx_11calypso_cli3app21render_feature_status
FN:407,_RNvNtCsk43tzqYvrEx_11calypso_cli3app21run_state_status_json
FN:537,_RNvNtCsk43tzqYvrEx_11calypso_cli3app21session_display_parts
FN:226,_RNvNtCsk43tzqYvrEx_11calypso_cli3app22parse_pull_request_ref
FN:185,_RNvNtCsk43tzqYvrEx_11calypso_cli3app22resolve_current_branch
FN:461,_RNvNtCsk43tzqYvrEx_11calypso_cli3app22run_state_status_plain
FN:576,_RNvNtCsk43tzqYvrEx_11calypso_cli3app22run_workflows_validate
FN:215,_RNvNtCsk43tzqYvrEx_11calypso_cli3app24missing_pull_request_ref
FN:359,_RNvNtCsk43tzqYvrEx_11calypso_cli3app24state_status_json_report
FN:277,_RNvNtCsk43tzqYvrEx_11calypso_cli3app25github_mergeability_label
FN:192,_RNvNtCsk43tzqYvrEx_11calypso_cli3app28resolve_current_pull_request
FN:222,_RNvNtCsk43tzqYvrEx_11calypso_cli3app29missing_pull_request_evidence
FN:196,_RNvNtCsk43tzqYvrEx_11calypso_cli3app41resolve_current_pull_request_with_program
FN:247,_RNvNtCsk43tzqYvrEx_11calypso_cli3app11run_command
FN:169,_RNvNtCsk43tzqYvrEx_11calypso_cli3app17gate_status_label
FN:178,_RNvNtCsk43tzqYvrEx_11calypso_cli3app17resolve_repo_root
FNDA:1,_RNCNCNvNtCsadPz79N6wDl_11calypso_cli3app10run_statuss2_00B7_
FNDA:4,_RNCNCNvNtCsadPz79N6wDl_11calypso_cli3app18agents_json_report00B7_
FNDA:0,_RNCNCNvNtCsadPz79N6wDl_11calypso_cli3app18doctor_json_report00B7_
FNDA:10,_RNCNCNvNtCsadPz79N6wDl_11calypso_cli3app24state_status_json_report00B7_
FNDA:5,_RNCNvNtCsadPz79N6wDl_11calypso_cli3app10run_doctor0B5_
FNDA:2,_RNCNvNtCsadPz79N6wDl_11calypso_cli3app10run_status0B5_
FNDA:1,_RNCNvNtCsadPz79N6wDl_11calypso_cli3app10run_statuss0_0B5_
FNDA:1,_RNCNvNtCsadPz79N6wDl_11calypso_cli3app10run_statuss1_0B5_
FNDA:1,_RNCNvNtCsadPz79N6wDl_11calypso_cli3app10run_statuss2_0B5_
FNDA:1,_RNCNvNtCsadPz79N6wDl_11calypso_cli3app10run_statuss_0B5_
FNDA:2,_RNCNvNtCsadPz79N6wDl_11calypso_cli3app11run_command0B5_
FNDA:0,_RNCNvNtCsadPz79N6wDl_11calypso_cli3app11run_commands0_0B5_
FNDA:14,_RNCNvNtCsadPz79N6wDl_11calypso_cli3app11run_commands_0B5_
FNDA:1,_RNCNvNtCsadPz79N6wDl_11calypso_cli3app15run_agents_json0B5_
FNDA:0,_RNCNvNtCsadPz79N6wDl_11calypso_cli3app15run_agents_jsons_0B5_
FNDA:0,_RNCNvNtCsadPz79N6wDl_11calypso_cli3app15run_doctor_json0B5_
FNDA:0,_RNCNvNtCsadPz79N6wDl_11calypso_cli3app16run_agents_plain0B5_
FNDA:5,_RNCNvNtCsadPz79N6wDl_11calypso_cli3app18agents_json_report0B5_
FNDA:8,_RNCNvNtCsadPz79N6wDl_11calypso_cli3app18doctor_json_report0B5_
FNDA:8,_RNCNvNtCsadPz79N6wDl_11calypso_cli3app18doctor_json_reports_0B5_
FNDA:0,_RNCNvNtCsadPz79N6wDl_11calypso_cli3app18run_workflows_show0B5_
FNDA:0,_RNCNvNtCsadPz79N6wDl_11calypso_cli3app18run_workflows_shows_0B5_
FNDA:6,_RNCNvNtCsadPz79N6wDl_11calypso_cli3app21render_feature_status0B5_
FNDA:2,_RNCNvNtCsadPz79N6wDl_11calypso_cli3app21render_feature_statuss_0B5_
FNDA:1,_RNCNvNtCsadPz79N6wDl_11calypso_cli3app21run_state_status_json0B5_
FNDA:0,_RNCNvNtCsadPz79N6wDl_11calypso_cli3app21run_state_status_jsons_0B5_
FNDA:0,_RNCNvNtCsadPz79N6wDl_11calypso_cli3app22run_state_status_plain0B5_
FNDA:0,_RNCNvNtCsadPz79N6wDl_11calypso_cli3app22run_workflows_validate0B5_
FNDA:0,_RNCNvNtCsadPz79N6wDl_11calypso_cli3app22run_workflows_validates0_0B5_
FNDA:0,_RNCNvNtCsadPz79N6wDl_11calypso_cli3app22run_workflows_validates_0B5_
FNDA:10,_RNCNvNtCsadPz79N6wDl_11calypso_cli3app24state_status_json_report0B5_
FNDA:1,_RNCNvNtCsadPz79N6wDl_11calypso_cli3app41resolve_current_pull_request_with_program0B5_
FNDA:6,_RNvNtCsadPz79N6wDl_11calypso_cli3app10run_doctor
FNDA:4,_RNvNtCsadPz79N6wDl_11calypso_cli3app10run_status
FNDA:30,_RNvNtCsadPz79N6wDl_11calypso_cli3app11run_command
FNDA:0,_RNvNtCsadPz79N6wDl_11calypso_cli3app13render_agents
FNDA:10,_RNvNtCsadPz79N6wDl_11calypso_cli3app15gate_status_str
FNDA:1,_RNvNtCsadPz79N6wDl_11calypso_cli3app15run_agents_json
FNDA:0,_RNvNtCsadPz79N6wDl_11calypso_cli3app15run_doctor_json
FNDA:5,_RNvNtCsadPz79N6wDl_11calypso_cli3app16agent_status_str
FNDA:57,_RNvNtCsadPz79N6wDl_11calypso_cli3app16checklist_marker
FNDA:0,_RNvNtCsadPz79N6wDl_11calypso_cli3app16run_agents_plain
FNDA:58,_RNvNtCsadPz79N6wDl_11calypso_cli3app17gate_status_label
FNDA:15,_RNvNtCsadPz79N6wDl_11calypso_cli3app17resolve_repo_root
FNDA:5,_RNvNtCsadPz79N6wDl_11calypso_cli3app18agents_json_report
FNDA:5,_RNvNtCsadPz79N6wDl_11calypso_cli3app18doctor_json_report
FNDA:0,_RNvNtCsadPz79N6wDl_11calypso_cli3app18run_workflows_list
FNDA:0,_RNvNtCsadPz79N6wDl_11calypso_cli3app18run_workflows_show
FNDA:4,_RNvNtCsadPz79N6wDl_11calypso_cli3app19github_review_label
FNDA:0,_RNvNtCsadPz79N6wDl_11calypso_cli3app19render_state_status
FNDA:4,_RNvNtCsadPz79N6wDl_11calypso_cli3app21evidence_status_label
FNDA:8,_RNvNtCsadPz79N6wDl_11calypso_cli3app21render_feature_status
FNDA:1,_RNvNtCsadPz79N6wDl_11calypso_cli3app21run_state_status_json
FNDA:0,_RNvNtCsadPz79N6wDl_11calypso_cli3app21session_display_parts
FNDA:5,_RNvNtCsadPz79N6wDl_11calypso_cli3app22parse_pull_request_ref
FNDA:4,_RNvNtCsadPz79N6wDl_11calypso_cli3app22resolve_current_branch
FNDA:0,_RNvNtCsadPz79N6wDl_11calypso_cli3app22run_state_status_plain
FNDA:0,_RNvNtCsadPz79N6wDl_11calypso_cli3app22run_workflows_validate
FNDA:2,_RNvNtCsadPz79N6wDl_11calypso_cli3app24missing_pull_request_ref
FNDA:5,_RNvNtCsadPz79N6wDl_11calypso_cli3app24state_status_json_report
FNDA:4,_RNvNtCsadPz79N6wDl_11calypso_cli3app25github_mergeability_label
FNDA:2,_RNvNtCsadPz79N6wDl_11calypso_cli3app28resolve_current_pull_request
FNDA:2,_RNvNtCsadPz79N6wDl_11calypso_cli3app29missing_pull_request_evidence
FNDA:7,_RNvNtCsadPz79N6wDl_11calypso_cli3app41resolve_current_pull_request_with_program
FNDA:0,_RNCNvNtCsk43tzqYvrEx_11calypso_cli3app11run_command0B5_
FNDA:0,_RNCNvNtCsk43tzqYvrEx_11calypso_cli3app11run_commands0_0B5_
FNDA:0,_RNCNvNtCsk43tzqYvrEx_11calypso_cli3app11run_commands_0B5_
FNDA:0,_RNCNCNvNtCsk43tzqYvrEx_11calypso_cli3app10run_statuss2_00B7_
FNDA:0,_RNCNCNvNtCsk43tzqYvrEx_11calypso_cli3app18agents_json_report00B7_
FNDA:0,_RNCNCNvNtCsk43tzqYvrEx_11calypso_cli3app18doctor_json_report00B7_
FNDA:0,_RNCNCNvNtCsk43tzqYvrEx_11calypso_cli3app24state_status_json_report00B7_
FNDA:0,_RNCNvNtCsk43tzqYvrEx_11calypso_cli3app10run_doctor0B5_
FNDA:0,_RNCNvNtCsk43tzqYvrEx_11calypso_cli3app10run_status0B5_
FNDA:0,_RNCNvNtCsk43tzqYvrEx_11calypso_cli3app10run_statuss0_0B5_
FNDA:0,_RNCNvNtCsk43tzqYvrEx_11calypso_cli3app10run_statuss1_0B5_
FNDA:0,_RNCNvNtCsk43tzqYvrEx_11calypso_cli3app10run_statuss2_0B5_
FNDA:0,_RNCNvNtCsk43tzqYvrEx_11calypso_cli3app10run_statuss_0B5_
FNDA:0,_RNCNvNtCsk43tzqYvrEx_11calypso_cli3app15run_agents_json0B5_
FNDA:0,_RNCNvNtCsk43tzqYvrEx_11calypso_cli3app15run_agents_jsons_0B5_
FNDA:0,_RNCNvNtCsk43tzqYvrEx_11calypso_cli3app15run_doctor_json0B5_
FNDA:0,_RNCNvNtCsk43tzqYvrEx_11calypso_cli3app16run_agents_plain0B5_
FNDA:0,_RNCNvNtCsk43tzqYvrEx_11calypso_cli3app18agents_json_report0B5_
FNDA:0,_RNCNvNtCsk43tzqYvrEx_11calypso_cli3app18doctor_json_report0B5_
FNDA:0,_RNCNvNtCsk43tzqYvrEx_11calypso_cli3app18doctor_json_reports_0B5_
FNDA:0,_RNCNvNtCsk43tzqYvrEx_11calypso_cli3app18run_workflows_show0B5_
FNDA:0,_RNCNvNtCsk43tzqYvrEx_11calypso_cli3app18run_workflows_shows_0B5_
FNDA:0,_RNCNvNtCsk43tzqYvrEx_11calypso_cli3app21render_feature_status0B5_
FNDA:0,_RNCNvNtCsk43tzqYvrEx_11calypso_cli3app21render_feature_statuss_0B5_
FNDA:0,_RNCNvNtCsk43tzqYvrEx_11calypso_cli3app21run_state_status_json0B5_
FNDA:0,_RNCNvNtCsk43tzqYvrEx_11calypso_cli3app21run_state_status_jsons_0B5_
FNDA:0,_RNCNvNtCsk43tzqYvrEx_11calypso_cli3app22run_state_status_plain0B5_
FNDA:0,_RNCNvNtCsk43tzqYvrEx_11calypso_cli3app22run_workflows_validate0B5_
FNDA:0,_RNCNvNtCsk43tzqYvrEx_11calypso_cli3app22run_workflows_validates0_0B5_
FNDA:0,_RNCNvNtCsk43tzqYvrEx_11calypso_cli3app22run_workflows_validates_0B5_
FNDA:0,_RNCNvNtCsk43tzqYvrEx_11calypso_cli3app24state_status_json_report0B5_
FNDA:0,_RNCNvNtCsk43tzqYvrEx_11calypso_cli3app41resolve_current_pull_request_with_program0B5_
FNDA:0,_RNvNtCsk43tzqYvrEx_11calypso_cli3app10run_doctor
FNDA:0,_RNvNtCsk43tzqYvrEx_11calypso_cli3app10run_status
FNDA:0,_RNvNtCsk43tzqYvrEx_11calypso_cli3app13render_agents
FNDA:0,_RNvNtCsk43tzqYvrEx_11calypso_cli3app15gate_status_str
FNDA:0,_RNvNtCsk43tzqYvrEx_11calypso_cli3app15run_agents_json
FNDA:0,_RNvNtCsk43tzqYvrEx_11calypso_cli3app15run_doctor_json
FNDA:0,_RNvNtCsk43tzqYvrEx_11calypso_cli3app16agent_status_str
FNDA:0,_RNvNtCsk43tzqYvrEx_11calypso_cli3app16checklist_marker
FNDA:0,_RNvNtCsk43tzqYvrEx_11calypso_cli3app16run_agents_plain
FNDA:0,_RNvNtCsk43tzqYvrEx_11calypso_cli3app18agents_json_report
FNDA:0,_RNvNtCsk43tzqYvrEx_11calypso_cli3app18doctor_json_report
FNDA:0,_RNvNtCsk43tzqYvrEx_11calypso_cli3app18run_workflows_list
FNDA:0,_RNvNtCsk43tzqYvrEx_11calypso_cli3app18run_workflows_show
FNDA:0,_RNvNtCsk43tzqYvrEx_11calypso_cli3app19github_review_label
FNDA:0,_RNvNtCsk43tzqYvrEx_11calypso_cli3app19render_state_status
FNDA:0,_RNvNtCsk43tzqYvrEx_11calypso_cli3app21evidence_status_label
FNDA:0,_RNvNtCsk43tzqYvrEx_11calypso_cli3app21render_feature_status
FNDA:0,_RNvNtCsk43tzqYvrEx_11calypso_cli3app21run_state_status_json
FNDA:0,_RNvNtCsk43tzqYvrEx_11calypso_cli3app21session_display_parts
FNDA:0,_RNvNtCsk43tzqYvrEx_11calypso_cli3app22parse_pull_request_ref
FNDA:0,_RNvNtCsk43tzqYvrEx_11calypso_cli3app22resolve_current_branch
FNDA:0,_RNvNtCsk43tzqYvrEx_11calypso_cli3app22run_state_status_plain
FNDA:0,_RNvNtCsk43tzqYvrEx_11calypso_cli3app22run_workflows_validate
FNDA:0,_RNvNtCsk43tzqYvrEx_11calypso_cli3app24missing_pull_request_ref
FNDA:0,_RNvNtCsk43tzqYvrEx_11calypso_cli3app24state_status_json_report
FNDA:0,_RNvNtCsk43tzqYvrEx_11calypso_cli3app25github_mergeability_label
FNDA:0,_RNvNtCsk43tzqYvrEx_11calypso_cli3app28resolve_current_pull_request
FNDA:0,_RNvNtCsk43tzqYvrEx_11calypso_cli3app29missing_pull_request_evidence
FNDA:0,_RNvNtCsk43tzqYvrEx_11calypso_cli3app41resolve_current_pull_request_with_program
FNDA:2,_RNvNtCsk43tzqYvrEx_11calypso_cli3app11run_command
FNDA:24,_RNvNtCsk43tzqYvrEx_11calypso_cli3app17gate_status_label
FNDA:2,_RNvNtCsk43tzqYvrEx_11calypso_cli3app17resolve_repo_root
FNF:64
FNH:43
DA:21,6
DA:22,6
DA:23,6
DA:25,6
DA:26,6
DA:28,4
DA:29,2
DA:30,4
DA:31,2
DA:32,2
DA:33,2
DA:34,2
DA:35,2
DA:36,1
DA:37,1
DA:39,2
DA:40,2
DA:41,2
DA:42,2
DA:43,2
DA:44,2
DA:45,2
DA:46,2
DA:48,2
DA:50,2
DA:51,2
DA:52,2
DA:53,2
DA:54,2
DA:55,2
DA:56,2
DA:57,2
DA:58,2
DA:59,2
DA:60,2
DA:61,2
DA:62,2
DA:63,2
DA:64,2
DA:65,2
DA:66,2
DA:67,1
DA:68,1
DA:70,2
DA:71,1
DA:72,1
DA:73,1
DA:74,1
DA:76,2
DA:77,2
DA:78,2
DA:80,2
DA:81,2
DA:82,2
DA:83,2
DA:84,2
DA:85,2
DA:86,4
DA:88,8
DA:89,8
DA:90,8
DA:91,8
DA:92,8
DA:93,8
DA:94,8
DA:95,8
DA:96,8
DA:97,8
DA:98,8
DA:99,8
DA:100,8
DA:101,8
DA:102,8
DA:104,8
DA:107,36
DA:108,28
DA:109,28
DA:110,85
DA:111,57
DA:112,57
DA:113,57
DA:114,57
DA:115,57
DA:116,57
DA:119,8
DA:120,8
DA:121,57
DA:122,57
DA:123,57
DA:125,8
DA:126,8
DA:127,8
DA:128,4
DA:129,4
DA:130,4
DA:131,4
DA:132,1
DA:134,3
DA:137,4
DA:138,4
DA:139,4
DA:141,4
DA:142,4
DA:143,4
DA:145,4
DA:146,4
DA:147,4
DA:149,4
DA:150,4
DA:151,3
DA:152,3
DA:153,3
DA:154,3
DA:156,8
DA:157,5
DA:158,5
DA:159,3
DA:160,3
DA:162,8
DA:163,8
DA:165,57
DA:166,57
DA:167,57
DA:169,82
DA:170,82
DA:171,46
DA:172,17
DA:173,10
DA:174,9
DA:176,82
DA:178,17
DA:179,17
DA:180,7
DA:181,10
DA:183,17
DA:185,4
DA:186,4
DA:187,3
DA:188,1
DA:190,4
DA:192,2
DA:193,2
DA:194,2
DA:196,7
DA:197,7
DA:198,7
DA:199,7
DA:200,7
DA:201,6
DA:202,3
DA:203,3
DA:204,3
DA:205,3
DA:206,3
DA:207,1
DA:209,2
DA:213,7
DA:215,2
DA:216,2
DA:217,2
DA:218,2
DA:219,2
DA:220,2
DA:222,2
DA:223,2
DA:224,2
DA:226,5
DA:233,5
DA:235,3
DA:236,3
DA:237,3
DA:238,3
DA:239,5
DA:247,32
DA:248,32
DA:249,32
DA:250,32
DA:251,32
DA:252,32
DA:254,30
DA:255,16
DA:256,16
DA:257,1
DA:259,15
DA:261,16
DA:262,14
DA:264,14
DA:265,14
DA:266,14
DA:267,32
DA:269,4
DA:270,4
DA:271,2
DA:272,1
DA:273,1
DA:275,4
DA:277,4
DA:278,4
DA:279,1
DA:280,1
DA:281,1
DA:282,1
DA:284,4
DA:286,4
DA:287,4
DA:288,1
DA:289,1
DA:290,1
DA:291,1
DA:293,4
DA:300,5
DA:301,5
DA:302,5
DA:303,5
DA:304,5
DA:305,8
DA:306,8
DA:307,6
DA:309,2
DA:311,8
DA:312,8
DA:313,8
DA:314,8
DA:315,5
DA:317,5
DA:318,8
DA:319,5
DA:321,5
DA:322,5
DA:323,5
DA:324,5
DA:325,5
DA:326,5
DA:327,5
DA:328,5
DA:329,5
DA:333,0
DA:334,0
DA:335,0
DA:336,0
DA:337,0
DA:338,0
DA:339,0
DA:341,0
DA:343,0
DA:349,10
DA:350,10
DA:351,5
DA:352,5
DA:353,0
DA:354,0
DA:356,10
DA:359,5
DA:360,5
DA:361,5
DA:362,5
DA:363,10
DA:364,10
DA:365,10
DA:366,5
DA:367,0
DA:368,0
DA:369,5
DA:372,10
DA:373,10
DA:374,10
DA:375,10
DA:376,10
DA:377,10
DA:378,10
DA:379,10
DA:380,10
DA:381,10
DA:382,10
DA:383,10
DA:385,10
DA:386,5
DA:388,5
DA:389,1
DA:391,4
DA:394,5
DA:395,5
DA:396,5
DA:397,5
DA:398,5
DA:399,5
DA:400,5
DA:401,5
DA:402,5
DA:403,5
DA:407,1
DA:408,1
DA:409,0
DA:410,1
DA:411,0
DA:412,0
DA:413,1
DA:416,0
DA:417,0
DA:419,0
DA:421,0
DA:422,0
DA:424,0
DA:426,0
DA:427,0
DA:429,0
DA:430,0
DA:431,0
DA:432,0
DA:433,0
DA:434,0
DA:435,0
DA:436,0
DA:437,0
DA:438,0
DA:440,0
DA:442,0
DA:443,0
DA:446,0
DA:447,0
DA:448,0
DA:450,0
DA:452,0
DA:455,0
DA:457,0
DA:458,0
DA:461,0
DA:462,0
DA:463,0
DA:464,0
DA:465,0
DA:466,0
DA:472,5
DA:473,5
DA:474,3
DA:475,0
DA:476,2
DA:477,0
DA:478,0
DA:480,5
DA:483,5
DA:484,5
DA:485,5
DA:486,5
DA:487,5
DA:488,5
DA:489,5
DA:490,5
DA:491,5
DA:492,5
DA:493,5
DA:494,5
DA:496,5
DA:497,5
DA:498,5
DA:499,5
DA:500,5
DA:503,1
DA:504,1
DA:505,0
DA:506,1
DA:507,0
DA:508,0
DA:509,1
DA:512,0
DA:513,0
DA:514,0
DA:515,0
DA:517,0
DA:518,0
DA:519,0
DA:520,0
DA:521,0
DA:522,0
DA:523,0
DA:526,0
DA:527,0
DA:528,0
DA:529,0
DA:534,0
DA:535,0
DA:537,0
DA:538,0
DA:539,0
DA:540,0
DA:541,0
DA:542,0
DA:543,0
DA:545,0
DA:548,0
DA:549,0
DA:550,0
DA:551,0
DA:552,0
DA:553,0
DA:560,0
DA:561,0
DA:562,0
DA:563,0
DA:564,0
DA:565,0
DA:566,0
DA:569,0
DA:570,0
DA:571,0
DA:572,0
DA:573,0
DA:576,0
DA:577,0
DA:578,0
DA:579,0
DA:580,0
DA:581,0
DA:582,0
BRF:0
BRH:0
LF:443
LH:324
end_of_record
SF:/home/lucas/calypso/.claude/worktrees/agent-a62ed768/cli/src/bin/coverage_driver.rs
FN:22,_RNCNvCsjQSbHeA3Dxx_15coverage_driver3run0B3_
FN:29,_RNCNvCsjQSbHeA3Dxx_15coverage_driver3runs_0B3_
FN:5,_RNCNvCsjQSbHeA3Dxx_15coverage_driver4main0B3_
FN:54,_RNvCsjQSbHeA3Dxx_15coverage_driver15coverage_totals
FN:46,_RNvCsjQSbHeA3Dxx_15coverage_driver16coverage_percent
FN:42,_RNvCsjQSbHeA3Dxx_15coverage_driver20meets_line_threshold
FN:81,_RNvCsjQSbHeA3Dxx_15coverage_driver21is_excluded_from_gate
FN:11,_RNvCsjQSbHeA3Dxx_15coverage_driver3run
FN:4,_RNvCsjQSbHeA3Dxx_15coverage_driver4main
FN:22,_RNCNvCskUmXrAOYRk8_15coverage_driver3run0B3_
FN:29,_RNCNvCskUmXrAOYRk8_15coverage_driver3runs_0B3_
FN:5,_RNCNvCskUmXrAOYRk8_15coverage_driver4main0B3_
FN:11,_RNvCskUmXrAOYRk8_15coverage_driver3run
FN:4,_RNvCskUmXrAOYRk8_15coverage_driver4main
FN:93,_RNvNtCskUmXrAOYRk8_15coverage_driver5testss_40coverage_totals_excludes_main_entrypoint
FN:113,_RNvNtCskUmXrAOYRk8_15coverage_driver5testss_41line_threshold_accepts_99_percent_or_more
FN:54,_RNvCskUmXrAOYRk8_15coverage_driver15coverage_totals
FN:46,_RNvCskUmXrAOYRk8_15coverage_driver16coverage_percent
FN:42,_RNvCskUmXrAOYRk8_15coverage_driver20meets_line_threshold
FN:81,_RNvCskUmXrAOYRk8_15coverage_driver21is_excluded_from_gate
FNDA:0,_RNCNvCsjQSbHeA3Dxx_15coverage_driver3run0B3_
FNDA:0,_RNCNvCsjQSbHeA3Dxx_15coverage_driver3runs_0B3_
FNDA:0,_RNCNvCsjQSbHeA3Dxx_15coverage_driver4main0B3_
FNDA:0,_RNvCsjQSbHeA3Dxx_15coverage_driver15coverage_totals
FNDA:0,_RNvCsjQSbHeA3Dxx_15coverage_driver16coverage_percent
FNDA:0,_RNvCsjQSbHeA3Dxx_15coverage_driver20meets_line_threshold
FNDA:0,_RNvCsjQSbHeA3Dxx_15coverage_driver21is_excluded_from_gate
FNDA:0,_RNvCsjQSbHeA3Dxx_15coverage_driver3run
FNDA:0,_RNvCsjQSbHeA3Dxx_15coverage_driver4main
FNDA:0,_RNCNvCskUmXrAOYRk8_15coverage_driver3run0B3_
FNDA:0,_RNCNvCskUmXrAOYRk8_15coverage_driver3runs_0B3_
FNDA:0,_RNCNvCskUmXrAOYRk8_15coverage_driver4main0B3_
FNDA:0,_RNvCskUmXrAOYRk8_15coverage_driver3run
FNDA:0,_RNvCskUmXrAOYRk8_15coverage_driver4main
FNDA:1,_RNvNtCskUmXrAOYRk8_15coverage_driver5testss_40coverage_totals_excludes_main_entrypoint
FNDA:1,_RNvNtCskUmXrAOYRk8_15coverage_driver5testss_41line_threshold_accepts_99_percent_or_more
FNDA:1,_RNvCskUmXrAOYRk8_15coverage_driver15coverage_totals
FNDA:3,_RNvCskUmXrAOYRk8_15coverage_driver16coverage_percent
FNDA:3,_RNvCskUmXrAOYRk8_15coverage_driver20meets_line_threshold
FNDA:3,_RNvCskUmXrAOYRk8_15coverage_driver21is_excluded_from_gate
FNF:11
FNH:6
DA:4,0
DA:5,0
DA:6,0
DA:7,0
DA:9,0
DA:11,0
DA:12,0
DA:13,0
DA:14,0
DA:15,0
DA:16,0
DA:17,0
DA:18,0
DA:19,0
DA:20,0
DA:21,0
DA:22,0
DA:24,0
DA:25,0
DA:26,0
DA:28,0
DA:29,0
DA:30,0
DA:32,0
DA:33,0
DA:35,0
DA:36,0
DA:37,0
DA:38,0
DA:40,0
DA:42,3
DA:43,3
DA:44,3
DA:46,3
DA:47,3
DA:48,0
DA:50,3
DA:52,3
DA:54,1
DA:55,1
DA:56,1
DA:57,1
DA:58,1
DA:60,12
DA:61,12
DA:62,3
DA:63,3
DA:64,3
DA:65,9
DA:66,3
DA:67,3
DA:68,6
DA:69,3
DA:70,1
DA:71,1
DA:72,1
DA:73,5
DA:78,1
DA:79,1
DA:81,3
DA:82,3
DA:83,2
DA:84,1
DA:85,3
DA:93,1
DA:94,1
DA:95,1
DA:96,1
DA:97,1
DA:98,1
DA:99,1
DA:100,1
DA:101,1
DA:102,1
DA:103,1
DA:104,1
DA:105,1
DA:106,1
DA:107,1
DA:109,1
DA:110,1
DA:113,1
DA:114,1
DA:115,1
DA:116,1
DA:117,1
BRF:0
BRH:0
LF:89
LH:55
end_of_record
SF:/home/lucas/calypso/.claude/worktrees/agent-a62ed768/cli/src/blueprint_workflows.rs
FN:64,_RNvMNtCsadPz79N6wDl_11calypso_cli19blueprint_workflowsNtB2_24BlueprintWorkflowLibrary3get
FN:42,_RNvMNtCsadPz79N6wDl_11calypso_cli19blueprint_workflowsNtB2_24BlueprintWorkflowLibrary4list
FN:72,_RNvMNtCsadPz79N6wDl_11calypso_cli19blueprint_workflowsNtB2_24BlueprintWorkflowLibrary5parse
FN:300,_RNvMs_NtCsadPz79N6wDl_11calypso_cli19blueprint_workflowsNtB4_8NextSpec10target_for
FN:67,_RNCNvMNtCsadPz79N6wDl_11calypso_cli19blueprint_workflowsNtB4_24BlueprintWorkflowLibrary3get0B6_
FN:64,_RNvMNtCsk43tzqYvrEx_11calypso_cli19blueprint_workflowsNtB2_24BlueprintWorkflowLibrary3get
FN:42,_RNvMNtCsk43tzqYvrEx_11calypso_cli19blueprint_workflowsNtB2_24BlueprintWorkflowLibrary4list
FN:72,_RNvMNtCsk43tzqYvrEx_11calypso_cli19blueprint_workflowsNtB2_24BlueprintWorkflowLibrary5parse
FN:300,_RNvMs_NtCsk43tzqYvrEx_11calypso_cli19blueprint_workflowsNtB4_8NextSpec10target_for
FN:67,_RNCNvMNtCsk43tzqYvrEx_11calypso_cli19blueprint_workflowsNtB4_24BlueprintWorkflowLibrary3get0B6_
FN:443,_RNvNtNtCsk43tzqYvrEx_11calypso_cli19blueprint_workflows5testss_31get_returns_yaml_for_known_stem
FN:455,_RNvNtNtCsk43tzqYvrEx_11calypso_cli19blueprint_workflows5testss_31list_contains_all_ten_workflows
FN:450,_RNvNtNtCsk43tzqYvrEx_11calypso_cli19blueprint_workflows5testss_33get_returns_none_for_unknown_stem
FN:504,_RNvNtNtCsk43tzqYvrEx_11calypso_cli19blueprint_workflows5testss_38next_spec_target_for_resolves_on_event
FN:491,_RNvNtNtCsk43tzqYvrEx_11calypso_cli19blueprint_workflows5testss_40next_spec_target_for_resolves_on_success
FN:431,_RNvNtNtCsk43tzqYvrEx_11calypso_cli19blueprint_workflows5testss_41all_embedded_workflows_parse_successfully
FN:481,_RNvNtNtCsk43tzqYvrEx_11calypso_cli19blueprint_workflows5testss_45default_feature_workflow_checks_are_populated
FN:471,_RNvNtNtCsk43tzqYvrEx_11calypso_cli19blueprint_workflows5testss_45default_feature_workflow_states_are_populated
FN:460,_RNvNtNtCsk43tzqYvrEx_11calypso_cli19blueprint_workflows5testss_51default_feature_workflow_has_expected_initial_state
FNDA:0,_RNvMNtCsadPz79N6wDl_11calypso_cli19blueprint_workflowsNtB2_24BlueprintWorkflowLibrary3get
FNDA:22,_RNvMNtCsadPz79N6wDl_11calypso_cli19blueprint_workflowsNtB2_24BlueprintWorkflowLibrary4list
FNDA:220,_RNvMNtCsadPz79N6wDl_11calypso_cli19blueprint_workflowsNtB2_24BlueprintWorkflowLibrary5parse
FNDA:0,_RNvMs_NtCsadPz79N6wDl_11calypso_cli19blueprint_workflowsNtB4_8NextSpec10target_for
FNDA:0,_RNCNvMNtCsadPz79N6wDl_11calypso_cli19blueprint_workflowsNtB4_24BlueprintWorkflowLibrary3get0B6_
FNDA:7,_RNvMNtCsk43tzqYvrEx_11calypso_cli19blueprint_workflowsNtB2_24BlueprintWorkflowLibrary3get
FNDA:10,_RNvMNtCsk43tzqYvrEx_11calypso_cli19blueprint_workflowsNtB2_24BlueprintWorkflowLibrary4list
FNDA:25,_RNvMNtCsk43tzqYvrEx_11calypso_cli19blueprint_workflowsNtB2_24BlueprintWorkflowLibrary5parse
FNDA:2,_RNvMs_NtCsk43tzqYvrEx_11calypso_cli19blueprint_workflowsNtB4_8NextSpec10target_for
FNDA:27,_RNCNvMNtCsk43tzqYvrEx_11calypso_cli19blueprint_workflowsNtB4_24BlueprintWorkflowLibrary3get0B6_
FNDA:1,_RNvNtNtCsk43tzqYvrEx_11calypso_cli19blueprint_workflows5testss_31get_returns_yaml_for_known_stem
FNDA:1,_RNvNtNtCsk43tzqYvrEx_11calypso_cli19blueprint_workflows5testss_31list_contains_all_ten_workflows
FNDA:1,_RNvNtNtCsk43tzqYvrEx_11calypso_cli19blueprint_workflows5testss_33get_returns_none_for_unknown_stem
FNDA:1,_RNvNtNtCsk43tzqYvrEx_11calypso_cli19blueprint_workflows5testss_38next_spec_target_for_resolves_on_event
FNDA:1,_RNvNtNtCsk43tzqYvrEx_11calypso_cli19blueprint_workflows5testss_40next_spec_target_for_resolves_on_success
FNDA:1,_RNvNtNtCsk43tzqYvrEx_11calypso_cli19blueprint_workflows5testss_41all_embedded_workflows_parse_successfully
FNDA:1,_RNvNtNtCsk43tzqYvrEx_11calypso_cli19blueprint_workflows5testss_45default_feature_workflow_checks_are_populated
FNDA:1,_RNvNtNtCsk43tzqYvrEx_11calypso_cli19blueprint_workflows5testss_45default_feature_workflow_states_are_populated
FNDA:1,_RNvNtNtCsk43tzqYvrEx_11calypso_cli19blueprint_workflows5testss_51default_feature_workflow_has_expected_initial_state
FNF:14
FNH:14
DA:42,32
DA:43,32
DA:44,32
DA:45,32
DA:46,32
DA:47,32
DA:48,32
DA:49,32
DA:50,32
DA:51,32
DA:52,32
DA:53,32
DA:54,32
DA:55,32
DA:56,32
DA:57,32
DA:58,32
DA:59,32
DA:60,32
DA:61,32
DA:64,7
DA:65,7
DA:66,7
DA:67,27
DA:68,7
DA:69,7
DA:72,245
DA:73,245
DA:74,245
DA:300,2
DA:301,2
DA:304,2
DA:305,2
DA:306,2
DA:307,0
DA:310,0
DA:311,0
DA:312,0
DA:313,0
DA:314,0
DA:315,0
DA:316,0
DA:318,0
DA:319,2
DA:431,1
DA:432,10
DA:433,10
DA:434,10
DA:435,10
DA:436,0
DA:437,0
DA:440,1
DA:443,1
DA:444,1
DA:445,1
DA:446,1
DA:447,1
DA:450,1
DA:451,1
DA:452,1
DA:455,1
DA:456,1
DA:457,1
DA:460,1
DA:461,1
DA:462,1
DA:463,1
DA:464,1
DA:466,0
DA:468,1
DA:471,1
DA:472,1
DA:473,1
DA:474,1
DA:475,1
DA:476,0
DA:478,1
DA:481,1
DA:482,1
DA:483,1
DA:484,1
DA:485,1
DA:486,0
DA:488,1
DA:491,1
DA:492,1
DA:493,1
DA:494,1
DA:495,1
DA:496,1
DA:497,1
DA:499,0
DA:501,1
DA:504,1
DA:505,1
DA:506,1
DA:507,1
DA:508,1
DA:509,1
DA:510,1
DA:512,0
DA:514,1
BRF:0
BRH:0
LF:103
LH:87
end_of_record
SF:/home/lucas/calypso/.claude/worktrees/agent-a62ed768/cli/src/claude.rs
FN:112,_RNvMs1_NtCsadPz79N6wDl_11calypso_cli6claudeNtB5_13ClaudeSession10check_auth
FN:102,_RNvMs1_NtCsadPz79N6wDl_11calypso_cli6claudeNtB5_13ClaudeSession3new
FN:126,_RNvMs1_NtCsadPz79N6wDl_11calypso_cli6claudeNtB5_13ClaudeSession6invoke
FN:237,_RNvNtCsadPz79N6wDl_11calypso_cli6claude12string_field
FN:227,_RNvNtCsadPz79N6wDl_11calypso_cli6claude13parse_aborted
FN:158,_RNvNtCsadPz79N6wDl_11calypso_cli6claude13parse_outcome
FN:273,_RNvNtCsadPz79N6wDl_11calypso_cli6claude15next_session_id
FN:248,_RNvNtCsadPz79N6wDl_11calypso_cli6claude16write_transcript
FN:177,_RNvNtCsadPz79N6wDl_11calypso_cli6claude19parse_clarification
FN:189,_RNvNtCsadPz79N6wDl_11calypso_cli6claude8parse_ok
FN:216,_RNvNtCsadPz79N6wDl_11calypso_cli6claude9parse_nok
FN:20,_RNvXNtCsadPz79N6wDl_11calypso_cli6claudeNtB2_12ClaudeConfigNtNtCs3XFJfFEDSOQ_4core7default7Default7default
FN:75,_RNvXs_NtCsadPz79N6wDl_11calypso_cli6claudeNtB4_11ClaudeErrorNtNtCs3XFJfFEDSOQ_4core3fmt7Display3fmt
FN:200,_RNCNCNvNtCsadPz79N6wDl_11calypso_cli6claude8parse_oks0_00B7_
FN:118,_RNCNvMs1_NtCsadPz79N6wDl_11calypso_cli6claudeNtB7_13ClaudeSession10check_auth0B9_
FN:239,_RNCNvNtCsadPz79N6wDl_11calypso_cli6claude12string_field0B5_
FN:241,_RNCNvNtCsadPz79N6wDl_11calypso_cli6claude12string_fields_0B5_
FN:228,_RNCNvNtCsadPz79N6wDl_11calypso_cli6claude13parse_aborted0B5_
FN:190,_RNCNvNtCsadPz79N6wDl_11calypso_cli6claude8parse_ok0B5_
FN:198,_RNCNvNtCsadPz79N6wDl_11calypso_cli6claude8parse_oks0_0B5_
FN:206,_RNCNvNtCsadPz79N6wDl_11calypso_cli6claude8parse_oks1_0B5_
FN:197,_RNCNvNtCsadPz79N6wDl_11calypso_cli6claude8parse_oks_0B5_
FN:217,_RNCNvNtCsadPz79N6wDl_11calypso_cli6claude9parse_nok0B5_
FN:112,_RNvMs1_NtCsk43tzqYvrEx_11calypso_cli6claudeNtB5_13ClaudeSession10check_auth
FN:237,_RNvNtCsk43tzqYvrEx_11calypso_cli6claude12string_field
FN:227,_RNvNtCsk43tzqYvrEx_11calypso_cli6claude13parse_aborted
FN:158,_RNvNtCsk43tzqYvrEx_11calypso_cli6claude13parse_outcome
FN:177,_RNvNtCsk43tzqYvrEx_11calypso_cli6claude19parse_clarification
FN:189,_RNvNtCsk43tzqYvrEx_11calypso_cli6claude8parse_ok
FN:216,_RNvNtCsk43tzqYvrEx_11calypso_cli6claude9parse_nok
FN:20,_RNvXNtCsk43tzqYvrEx_11calypso_cli6claudeNtB2_12ClaudeConfigNtNtCs3XFJfFEDSOQ_4core7default7Default7default
FN:75,_RNvXs_NtCsk43tzqYvrEx_11calypso_cli6claudeNtB4_11ClaudeErrorNtNtCs3XFJfFEDSOQ_4core3fmt7Display3fmt
FN:102,_RNvMs1_NtCsk43tzqYvrEx_11calypso_cli6claudeNtB5_13ClaudeSession3new
FN:126,_RNvMs1_NtCsk43tzqYvrEx_11calypso_cli6claudeNtB5_13ClaudeSession6invoke
FN:273,_RNvNtCsk43tzqYvrEx_11calypso_cli6claude15next_session_id
FN:248,_RNvNtCsk43tzqYvrEx_11calypso_cli6claude16write_transcript
FN:200,_RNCNCNvNtCsk43tzqYvrEx_11calypso_cli6claude8parse_oks0_00B7_
FN:118,_RNCNvMs1_NtCsk43tzqYvrEx_11calypso_cli6claudeNtB7_13ClaudeSession10check_auth0B9_
FN:239,_RNCNvNtCsk43tzqYvrEx_11calypso_cli6claude12string_field0B5_
FN:241,_RNCNvNtCsk43tzqYvrEx_11calypso_cli6claude12string_fields_0B5_
FN:228,_RNCNvNtCsk43tzqYvrEx_11calypso_cli6claude13parse_aborted0B5_
FN:190,_RNCNvNtCsk43tzqYvrEx_11calypso_cli6claude8parse_ok0B5_
FN:198,_RNCNvNtCsk43tzqYvrEx_11calypso_cli6claude8parse_oks0_0B5_
FN:206,_RNCNvNtCsk43tzqYvrEx_11calypso_cli6claude8parse_oks1_0B5_
FN:197,_RNCNvNtCsk43tzqYvrEx_11calypso_cli6claude8parse_oks_0B5_
FN:217,_RNCNvNtCsk43tzqYvrEx_11calypso_cli6claude9parse_nok0B5_
FN:390,_RNvNtNtCsk43tzqYvrEx_11calypso_cli6claude5testss_35parse_outcome_ok_with_artifact_refs
FN:326,_RNvNtNtCsk43tzqYvrEx_11calypso_cli6claude5testss_37parse_clarification_extracts_question
FN:342,_RNvNtNtCsk43tzqYvrEx_11calypso_cli6claude5testss_40parse_ok_with_invalid_json_returns_error
FN:348,_RNvNtNtCsk43tzqYvrEx_11calypso_cli6claude5testss_41parse_nok_with_invalid_json_returns_error
FN:287,_RNvNtNtCsk43tzqYvrEx_11calypso_cli6claude5testss_41parse_outcome_ok_produces_correct_variant
FN:301,_RNvNtNtCsk43tzqYvrEx_11calypso_cli6claude5testss_42parse_outcome_nok_produces_correct_variant
FN:335,_RNvNtNtCsk43tzqYvrEx_11calypso_cli6claude5testss_42parse_outcome_with_no_marker_returns_error
FN:370,_RNvNtNtCsk43tzqYvrEx_11calypso_cli6claude5testss_43parse_nok_with_missing_reason_returns_error
FN:363,_RNvNtNtCsk43tzqYvrEx_11calypso_cli6claude5testss_43parse_ok_with_missing_summary_returns_error
FN:354,_RNvNtNtCsk43tzqYvrEx_11calypso_cli6claude5testss_45parse_aborted_with_invalid_json_returns_error
FN:314,_RNvNtNtCsk43tzqYvrEx_11calypso_cli6claude5testss_46parse_outcome_aborted_produces_correct_variant
FN:377,_RNvNtNtCsk43tzqYvrEx_11calypso_cli6claude5testss_47parse_aborted_with_missing_reason_returns_error
FN:384,_RNvNtNtCsk43tzqYvrEx_11calypso_cli6claude5testss_47parse_clarification_returns_none_when_no_marker
FNDA:13,_RNvMs1_NtCsadPz79N6wDl_11calypso_cli6claudeNtB5_13ClaudeSession10check_auth
FNDA:12,_RNvMs1_NtCsadPz79N6wDl_11calypso_cli6claudeNtB5_13ClaudeSession3new
FNDA:3,_RNvMs1_NtCsadPz79N6wDl_11calypso_cli6claudeNtB5_13ClaudeSession6invoke
FNDA:17,_RNvNtCsadPz79N6wDl_11calypso_cli6claude12string_field
FNDA:2,_RNvNtCsadPz79N6wDl_11calypso_cli6claude13parse_aborted
FNDA:16,_RNvNtCsadPz79N6wDl_11calypso_cli6claude13parse_outcome
FNDA:12,_RNvNtCsadPz79N6wDl_11calypso_cli6claude15next_session_id
FNDA:1,_RNvNtCsadPz79N6wDl_11calypso_cli6claude16write_transcript
FNDA:10,_RNvNtCsadPz79N6wDl_11calypso_cli6claude19parse_clarification
FNDA:9,_RNvNtCsadPz79N6wDl_11calypso_cli6claude8parse_ok
FNDA:3,_RNvNtCsadPz79N6wDl_11calypso_cli6claude9parse_nok
FNDA:31,_RNvXNtCsadPz79N6wDl_11calypso_cli6claudeNtB2_12ClaudeConfigNtNtCs3XFJfFEDSOQ_4core7default7Default7default
FNDA:1,_RNvXs_NtCsadPz79N6wDl_11calypso_cli6claudeNtB4_11ClaudeErrorNtNtCs3XFJfFEDSOQ_4core3fmt7Display3fmt
FNDA:1,_RNCNCNvNtCsadPz79N6wDl_11calypso_cli6claude8parse_oks0_00B7_
FNDA:12,_RNCNvMs1_NtCsadPz79N6wDl_11calypso_cli6claudeNtB7_13ClaudeSession10check_auth0B9_
FNDA:17,_RNCNvNtCsadPz79N6wDl_11calypso_cli6claude12string_field0B5_
FNDA:0,_RNCNvNtCsadPz79N6wDl_11calypso_cli6claude12string_fields_0B5_
FNDA:0,_RNCNvNtCsadPz79N6wDl_11calypso_cli6claude13parse_aborted0B5_
FNDA:0,_RNCNvNtCsadPz79N6wDl_11calypso_cli6claude8parse_ok0B5_
FNDA:1,_RNCNvNtCsadPz79N6wDl_11calypso_cli6claude8parse_oks0_0B5_
FNDA:1,_RNCNvNtCsadPz79N6wDl_11calypso_cli6claude8parse_oks1_0B5_
FNDA:1,_RNCNvNtCsadPz79N6wDl_11calypso_cli6claude8parse_oks_0B5_
FNDA:0,_RNCNvNtCsadPz79N6wDl_11calypso_cli6claude9parse_nok0B5_
FNDA:0,_RNvMs1_NtCsk43tzqYvrEx_11calypso_cli6claudeNtB5_13ClaudeSession10check_auth
FNDA:9,_RNvNtCsk43tzqYvrEx_11calypso_cli6claude12string_field
FNDA:3,_RNvNtCsk43tzqYvrEx_11calypso_cli6claude13parse_aborted
FNDA:11,_RNvNtCsk43tzqYvrEx_11calypso_cli6claude13parse_outcome
FNDA:2,_RNvNtCsk43tzqYvrEx_11calypso_cli6claude19parse_clarification
FNDA:4,_RNvNtCsk43tzqYvrEx_11calypso_cli6claude8parse_ok
FNDA:3,_RNvNtCsk43tzqYvrEx_11calypso_cli6claude9parse_nok
FNDA:0,_RNvXNtCsk43tzqYvrEx_11calypso_cli6claudeNtB2_12ClaudeConfigNtNtCs3XFJfFEDSOQ_4core7default7Default7default
FNDA:7,_RNvXs_NtCsk43tzqYvrEx_11calypso_cli6claudeNtB4_11ClaudeErrorNtNtCs3XFJfFEDSOQ_4core3fmt7Display3fmt
FNDA:0,_RNvMs1_NtCsk43tzqYvrEx_11calypso_cli6claudeNtB5_13ClaudeSession3new
FNDA:0,_RNvMs1_NtCsk43tzqYvrEx_11calypso_cli6claudeNtB5_13ClaudeSession6invoke
FNDA:0,_RNvNtCsk43tzqYvrEx_11calypso_cli6claude15next_session_id
FNDA:0,_RNvNtCsk43tzqYvrEx_11calypso_cli6claude16write_transcript
FNDA:2,_RNCNCNvNtCsk43tzqYvrEx_11calypso_cli6claude8parse_oks0_00B7_
FNDA:0,_RNCNvMs1_NtCsk43tzqYvrEx_11calypso_cli6claudeNtB7_13ClaudeSession10check_auth0B9_
FNDA:6,_RNCNvNtCsk43tzqYvrEx_11calypso_cli6claude12string_field0B5_
FNDA:3,_RNCNvNtCsk43tzqYvrEx_11calypso_cli6claude12string_fields_0B5_
FNDA:1,_RNCNvNtCsk43tzqYvrEx_11calypso_cli6claude13parse_aborted0B5_
FNDA:1,_RNCNvNtCsk43tzqYvrEx_11calypso_cli6claude8parse_ok0B5_
FNDA:1,_RNCNvNtCsk43tzqYvrEx_11calypso_cli6claude8parse_oks0_0B5_
FNDA:1,_RNCNvNtCsk43tzqYvrEx_11calypso_cli6claude8parse_oks1_0B5_
FNDA:1,_RNCNvNtCsk43tzqYvrEx_11calypso_cli6claude8parse_oks_0B5_
FNDA:1,_RNCNvNtCsk43tzqYvrEx_11calypso_cli6claude9parse_nok0B5_
FNDA:1,_RNvNtNtCsk43tzqYvrEx_11calypso_cli6claude5testss_35parse_outcome_ok_with_artifact_refs
FNDA:1,_RNvNtNtCsk43tzqYvrEx_11calypso_cli6claude5testss_37parse_clarification_extracts_question
FNDA:1,_RNvNtNtCsk43tzqYvrEx_11calypso_cli6claude5testss_40parse_ok_with_invalid_json_returns_error
FNDA:1,_RNvNtNtCsk43tzqYvrEx_11calypso_cli6claude5testss_41parse_nok_with_invalid_json_returns_error
FNDA:1,_RNvNtNtCsk43tzqYvrEx_11calypso_cli6claude5testss_41parse_outcome_ok_produces_correct_variant
FNDA:1,_RNvNtNtCsk43tzqYvrEx_11calypso_cli6claude5testss_42parse_outcome_nok_produces_correct_variant
FNDA:1,_RNvNtNtCsk43tzqYvrEx_11calypso_cli6claude5testss_42parse_outcome_with_no_marker_returns_error
FNDA:1,_RNvNtNtCsk43tzqYvrEx_11calypso_cli6claude5testss_43parse_nok_with_missing_reason_returns_error
FNDA:1,_RNvNtNtCsk43tzqYvrEx_11calypso_cli6claude5testss_43parse_ok_with_missing_summary_returns_error
FNDA:1,_RNvNtNtCsk43tzqYvrEx_11calypso_cli6claude5testss_45parse_aborted_with_invalid_json_returns_error
FNDA:1,_RNvNtNtCsk43tzqYvrEx_11calypso_cli6claude5testss_46parse_outcome_aborted_produces_correct_variant
FNDA:1,_RNvNtNtCsk43tzqYvrEx_11calypso_cli6claude5testss_47parse_aborted_with_missing_reason_returns_error
FNDA:1,_RNvNtNtCsk43tzqYvrEx_11calypso_cli6claude5testss_47parse_clarification_returns_none_when_no_marker
FNF:36
FNH:36
DA:20,31
DA:21,31
DA:22,31
DA:23,31
DA:24,31
DA:25,31
DA:26,31
DA:75,8
DA:76,8
DA:77,0
DA:78,8
DA:79,8
DA:80,8
DA:81,8
DA:84,0
DA:86,8
DA:102,12
DA:103,12
DA:104,12
DA:105,12
DA:106,12
DA:107,12
DA:112,13
DA:113,13
DA:114,13
DA:115,13
DA:116,13
DA:117,13
DA:118,13
DA:119,13
DA:126,3
DA:127,3
DA:128,3
DA:129,3
DA:130,3
DA:131,3
DA:132,3
DA:133,3
DA:134,3
DA:135,3
DA:136,3
DA:138,3
DA:139,1
DA:140,2
DA:142,3
DA:144,3
DA:145,3
DA:147,3
DA:148,1
DA:149,2
DA:151,3
DA:152,3
DA:158,27
DA:159,27
DA:160,26
DA:161,13
DA:162,13
DA:163,13
DA:164,6
DA:165,7
DA:166,7
DA:167,5
DA:168,2
DA:171,3
DA:172,3
DA:173,3
DA:174,27
DA:177,12
DA:178,12
DA:179,11
DA:180,3
DA:181,3
DA:182,3
DA:183,3
DA:184,8
DA:186,9
DA:187,12
DA:189,13
DA:190,13
DA:191,1
DA:192,1
DA:194,12
DA:195,11
DA:196,11
DA:197,11
DA:198,11
DA:199,2
DA:200,3
DA:201,2
DA:202,2
DA:203,11
DA:204,11
DA:205,11
DA:206,11
DA:207,11
DA:209,11
DA:210,11
DA:211,11
DA:212,11
DA:213,11
DA:214,13
DA:216,6
DA:217,6
DA:218,1
DA:219,1
DA:221,5
DA:222,5
DA:224,4
DA:225,6
DA:227,5
DA:228,5
DA:229,1
DA:230,1
DA:232,4
DA:234,3
DA:235,5
DA:237,26
DA:238,26
DA:239,26
DA:240,26
DA:241,26
DA:242,3
DA:243,3
DA:244,26
DA:248,1
DA:249,1
DA:250,1
DA:251,1
DA:252,1
DA:253,1
DA:254,1
DA:255,1
DA:256,1
DA:257,1
DA:258,1
DA:259,1
DA:262,1
DA:263,1
DA:264,1
DA:265,1
DA:266,1
DA:268,1
DA:269,1
DA:273,12
DA:274,12
DA:275,12
DA:276,12
DA:277,12
DA:279,12
DA:280,12
DA:287,1
DA:288,1
DA:289,1
DA:290,1
DA:292,1
DA:293,1
DA:294,1
DA:295,1
DA:296,1
DA:298,1
DA:301,1
DA:302,1
DA:303,1
DA:304,1
DA:306,1
DA:307,1
DA:308,1
DA:309,1
DA:311,1
DA:314,1
DA:315,1
DA:316,1
DA:317,1
DA:319,1
DA:320,1
DA:321,1
DA:323,1
DA:326,1
DA:327,1
DA:328,1
DA:329,1
DA:330,1
DA:331,1
DA:332,1
DA:335,1
DA:336,1
DA:337,1
DA:338,1
DA:339,1
DA:342,1
DA:343,1
DA:344,1
DA:345,1
DA:348,1
DA:349,1
DA:350,1
DA:351,1
DA:354,1
DA:355,1
DA:356,1
DA:357,1
DA:358,1
DA:360,1
DA:363,1
DA:364,1
DA:365,1
DA:366,1
DA:367,1
DA:370,1
DA:371,1
DA:372,1
DA:373,1
DA:374,1
DA:377,1
DA:378,1
DA:379,1
DA:380,1
DA:381,1
DA:384,1
DA:385,1
DA:386,1
DA:387,1
DA:390,1
DA:391,1
DA:392,1
DA:393,1
DA:395,1
DA:396,1
DA:397,1
DA:398,1
DA:399,1
DA:401,1
BRF:0
BRH:0
LF:245
LH:243
end_of_record
SF:/home/lucas/calypso/.claude/worktrees/agent-a62ed768/cli/src/doctor.rs
FN:31,_RNvMNtCsadPz79N6wDl_11calypso_cli6doctorNtB2_13DoctorCheckId11builtin_key
FN:46,_RNvMNtCsadPz79N6wDl_11calypso_cli6doctorNtB2_13DoctorCheckId5label
FN:108,_RNvMs0_NtCsadPz79N6wDl_11calypso_cli6doctorNtB5_12DoctorReport19to_builtin_evidence
FN:87,_RNvMs_NtCsadPz79N6wDl_11calypso_cli6doctorNtB4_9DoctorFix12is_automatic
FN:299,_RNvNtCsadPz79N6wDl_11calypso_cli6doctor10make_check
FN:562,_RNvNtCsadPz79N6wDl_11calypso_cli6doctor11failing_fix
FN:429,_RNvNtCsadPz79N6wDl_11calypso_cli6doctor11run_command
FN:287,_RNvNtCsadPz79N6wDl_11calypso_cli6doctor16status_from_bool
FN:450,_RNvNtCsadPz79N6wDl_11calypso_cli6doctor18failing_doctor_fix
FN:376,_RNvNtCsadPz79N6wDl_11calypso_cli6doctor18render_fix_verbose
FN:325,_RNvNtCsadPz79N6wDl_11calypso_cli6doctor20render_doctor_report
FN:349,_RNvNtCsadPz79N6wDl_11calypso_cli6doctor28render_doctor_report_verbose
FN:399,_RNvNtCsadPz79N6wDl_11calypso_cli6doctor9apply_fix
FN:179,_RNvXs1_NtCsadPz79N6wDl_11calypso_cli6doctorNtB5_21HostDoctorEnvironmentNtB5_17DoctorEnvironment11github_user
FN:135,_RNvXs1_NtCsadPz79N6wDl_11calypso_cli6doctorNtB5_21HostDoctorEnvironmentNtB5_17DoctorEnvironment11is_git_repo
FN:142,_RNvXs1_NtCsadPz79N6wDl_11calypso_cli6doctorNtB5_21HostDoctorEnvironmentNtB5_17DoctorEnvironment14command_exists
FN:149,_RNvXs1_NtCsadPz79N6wDl_11calypso_cli6doctorNtB5_21HostDoctorEnvironmentNtB5_17DoctorEnvironment16claude_reachable
FN:153,_RNvXs1_NtCsadPz79N6wDl_11calypso_cli6doctorNtB5_21HostDoctorEnvironmentNtB5_17DoctorEnvironment16gh_authenticated
FN:160,_RNvXs1_NtCsadPz79N6wDl_11calypso_cli6doctorNtB5_21HostDoctorEnvironmentNtB5_17DoctorEnvironment17has_github_remote
FN:168,_RNvXs1_NtCsadPz79N6wDl_11calypso_cli6doctorNtB5_21HostDoctorEnvironmentNtB5_17DoctorEnvironment22missing_workflow_files
FN:193,_RINvNtCsadPz79N6wDl_11calypso_cli6doctor21collect_doctor_reportNtB2_21HostDoctorEnvironmentEB4_
FN:210,_RNCINvNtCsadPz79N6wDl_11calypso_cli6doctor21collect_doctor_reportNtB4_21HostDoctorEnvironmentE0B6_
FN:261,_RNCINvNtCsadPz79N6wDl_11calypso_cli6doctor21collect_doctor_reportNtB4_21HostDoctorEnvironmentEs0_0B6_
FN:211,_RNCINvNtCsadPz79N6wDl_11calypso_cli6doctor21collect_doctor_reportNtB4_21HostDoctorEnvironmentEs_0B6_
FN:526,_RNCNCNvNtCsadPz79N6wDl_11calypso_cli6doctor18failing_doctor_fixs_00B7_
FN:111,_RNCNvMs0_NtCsadPz79N6wDl_11calypso_cli6doctorNtB7_12DoctorReport19to_builtin_evidence0B9_
FN:309,_RNCNvNtCsadPz79N6wDl_11calypso_cli6doctor10make_check0B5_
FN:312,_RNCNvNtCsadPz79N6wDl_11calypso_cli6doctor10make_checks_0B5_
FN:434,_RNCNvNtCsadPz79N6wDl_11calypso_cli6doctor11run_command0B5_
FN:515,_RNCNvNtCsadPz79N6wDl_11calypso_cli6doctor18failing_doctor_fix0B5_
FN:524,_RNCNvNtCsadPz79N6wDl_11calypso_cli6doctor18failing_doctor_fixs_0B5_
FN:406,_RNCNvNtCsadPz79N6wDl_11calypso_cli6doctor9apply_fix0B5_
FN:409,_RNCNvNtCsadPz79N6wDl_11calypso_cli6doctor9apply_fixs_0B5_
FN:139,_RNCNvXs1_NtCsadPz79N6wDl_11calypso_cli6doctorNtB7_21HostDoctorEnvironmentNtB7_17DoctorEnvironment11is_git_repo0B9_
FN:146,_RNCNvXs1_NtCsadPz79N6wDl_11calypso_cli6doctorNtB7_21HostDoctorEnvironmentNtB7_17DoctorEnvironment14command_exists0B9_
FN:157,_RNCNvXs1_NtCsadPz79N6wDl_11calypso_cli6doctorNtB7_21HostDoctorEnvironmentNtB7_17DoctorEnvironment16gh_authenticated0B9_
FN:165,_RNCNvXs1_NtCsadPz79N6wDl_11calypso_cli6doctorNtB7_21HostDoctorEnvironmentNtB7_17DoctorEnvironment17has_github_remote0B9_
FN:172,_RNCNvXs1_NtCsadPz79N6wDl_11calypso_cli6doctorNtB7_21HostDoctorEnvironmentNtB7_17DoctorEnvironment22missing_workflow_files0B9_
FN:173,_RNCNvXs1_NtCsadPz79N6wDl_11calypso_cli6doctorNtB7_21HostDoctorEnvironmentNtB7_17DoctorEnvironment22missing_workflow_filess_0B9_
FN:31,_RNvMNtCsk43tzqYvrEx_11calypso_cli6doctorNtB2_13DoctorCheckId11builtin_key
FN:46,_RNvMNtCsk43tzqYvrEx_11calypso_cli6doctorNtB2_13DoctorCheckId5label
FN:108,_RNvMs0_NtCsk43tzqYvrEx_11calypso_cli6doctorNtB5_12DoctorReport19to_builtin_evidence
FN:87,_RNvMs_NtCsk43tzqYvrEx_11calypso_cli6doctorNtB4_9DoctorFix12is_automatic
FN:299,_RNvNtCsk43tzqYvrEx_11calypso_cli6doctor10make_check
FN:562,_RNvNtCsk43tzqYvrEx_11calypso_cli6doctor11failing_fix
FN:429,_RNvNtCsk43tzqYvrEx_11calypso_cli6doctor11run_command
FN:287,_RNvNtCsk43tzqYvrEx_11calypso_cli6doctor16status_from_bool
FN:450,_RNvNtCsk43tzqYvrEx_11calypso_cli6doctor18failing_doctor_fix
FN:399,_RNvNtCsk43tzqYvrEx_11calypso_cli6doctor9apply_fix
FN:179,_RNvXs1_NtCsk43tzqYvrEx_11calypso_cli6doctorNtB5_21HostDoctorEnvironmentNtB5_17DoctorEnvironment11github_user
FN:135,_RNvXs1_NtCsk43tzqYvrEx_11calypso_cli6doctorNtB5_21HostDoctorEnvironmentNtB5_17DoctorEnvironment11is_git_repo
FN:142,_RNvXs1_NtCsk43tzqYvrEx_11calypso_cli6doctorNtB5_21HostDoctorEnvironmentNtB5_17DoctorEnvironment14command_exists
FN:149,_RNvXs1_NtCsk43tzqYvrEx_11calypso_cli6doctorNtB5_21HostDoctorEnvironmentNtB5_17DoctorEnvironment16claude_reachable
FN:153,_RNvXs1_NtCsk43tzqYvrEx_11calypso_cli6doctorNtB5_21HostDoctorEnvironmentNtB5_17DoctorEnvironment16gh_authenticated
FN:160,_RNvXs1_NtCsk43tzqYvrEx_11calypso_cli6doctorNtB5_21HostDoctorEnvironmentNtB5_17DoctorEnvironment17has_github_remote
FN:168,_RNvXs1_NtCsk43tzqYvrEx_11calypso_cli6doctorNtB5_21HostDoctorEnvironmentNtB5_17DoctorEnvironment22missing_workflow_files
FN:376,_RNvNtCsk43tzqYvrEx_11calypso_cli6doctor18render_fix_verbose
FN:325,_RNvNtCsk43tzqYvrEx_11calypso_cli6doctor20render_doctor_report
FN:349,_RNvNtCsk43tzqYvrEx_11calypso_cli6doctor28render_doctor_report_verbose
FN:193,_RINvNtCsk43tzqYvrEx_11calypso_cli6doctor21collect_doctor_reportNtB2_21HostDoctorEnvironmentEB4_
FN:210,_RNCINvNtCsk43tzqYvrEx_11calypso_cli6doctor21collect_doctor_reportNtB4_21HostDoctorEnvironmentE0B6_
FN:261,_RNCINvNtCsk43tzqYvrEx_11calypso_cli6doctor21collect_doctor_reportNtB4_21HostDoctorEnvironmentEs0_0B6_
FN:211,_RNCINvNtCsk43tzqYvrEx_11calypso_cli6doctor21collect_doctor_reportNtB4_21HostDoctorEnvironmentEs_0B6_
FN:526,_RNCNCNvNtCsk43tzqYvrEx_11calypso_cli6doctor18failing_doctor_fixs_00B7_
FN:111,_RNCNvMs0_NtCsk43tzqYvrEx_11calypso_cli6doctorNtB7_12DoctorReport19to_builtin_evidence0B9_
FN:309,_RNCNvNtCsk43tzqYvrEx_11calypso_cli6doctor10make_check0B5_
FN:312,_RNCNvNtCsk43tzqYvrEx_11calypso_cli6doctor10make_checks_0B5_
FN:434,_RNCNvNtCsk43tzqYvrEx_11calypso_cli6doctor11run_command0B5_
FN:515,_RNCNvNtCsk43tzqYvrEx_11calypso_cli6doctor18failing_doctor_fix0B5_
FN:524,_RNCNvNtCsk43tzqYvrEx_11calypso_cli6doctor18failing_doctor_fixs_0B5_
FN:406,_RNCNvNtCsk43tzqYvrEx_11calypso_cli6doctor9apply_fix0B5_
FN:409,_RNCNvNtCsk43tzqYvrEx_11calypso_cli6doctor9apply_fixs_0B5_
FN:139,_RNCNvXs1_NtCsk43tzqYvrEx_11calypso_cli6doctorNtB7_21HostDoctorEnvironmentNtB7_17DoctorEnvironment11is_git_repo0B9_
FN:146,_RNCNvXs1_NtCsk43tzqYvrEx_11calypso_cli6doctorNtB7_21HostDoctorEnvironmentNtB7_17DoctorEnvironment14command_exists0B9_
FN:157,_RNCNvXs1_NtCsk43tzqYvrEx_11calypso_cli6doctorNtB7_21HostDoctorEnvironmentNtB7_17DoctorEnvironment16gh_authenticated0B9_
FN:165,_RNCNvXs1_NtCsk43tzqYvrEx_11calypso_cli6doctorNtB7_21HostDoctorEnvironmentNtB7_17DoctorEnvironment17has_github_remote0B9_
FN:172,_RNCNvXs1_NtCsk43tzqYvrEx_11calypso_cli6doctorNtB7_21HostDoctorEnvironmentNtB7_17DoctorEnvironment22missing_workflow_files0B9_
FN:173,_RNCNvXs1_NtCsk43tzqYvrEx_11calypso_cli6doctorNtB7_21HostDoctorEnvironmentNtB7_17DoctorEnvironment22missing_workflow_filess_0B9_
FN:606,_RNvNtNtCsk43tzqYvrEx_11calypso_cli6doctor5tests15unique_temp_dir
FN:689,_RNvNtNtCsk43tzqYvrEx_11calypso_cli6doctor5testss_39apply_fix_sequence_stops_on_first_error
FN:643,_RNvNtNtCsk43tzqYvrEx_11calypso_cli6doctor5testss_47doctor_fix_is_automatic_for_non_manual_variants
FN:668,_RNvNtNtCsk43tzqYvrEx_11calypso_cli6doctor5testss_54apply_fix_write_file_creates_parent_and_writes_content
FN:618,_RNvNtNtCsk43tzqYvrEx_11calypso_cli6doctor5testss_56host_environment_reports_missing_required_workflow_files
FN:193,_RINvNtCsadPz79N6wDl_11calypso_cli6doctor21collect_doctor_reportNtCs1Hna8M9sE5K_6doctor15FakeEnvironmentEB11_
FN:210,_RNCINvNtCsadPz79N6wDl_11calypso_cli6doctor21collect_doctor_reportNtCs1Hna8M9sE5K_6doctor15FakeEnvironmentE0B13_
FN:261,_RNCINvNtCsadPz79N6wDl_11calypso_cli6doctor21collect_doctor_reportNtCs1Hna8M9sE5K_6doctor15FakeEnvironmentEs0_0B13_
FN:211,_RNCINvNtCsadPz79N6wDl_11calypso_cli6doctor21collect_doctor_reportNtCs1Hna8M9sE5K_6doctor15FakeEnvironmentEs_0B13_
FNDA:24,_RNvMNtCsadPz79N6wDl_11calypso_cli6doctorNtB2_13DoctorCheckId11builtin_key
FNDA:96,_RNvMNtCsadPz79N6wDl_11calypso_cli6doctorNtB2_13DoctorCheckId5label
FNDA:3,_RNvMs0_NtCsadPz79N6wDl_11calypso_cli6doctorNtB5_12DoctorReport19to_builtin_evidence
FNDA:11,_RNvMs_NtCsadPz79N6wDl_11calypso_cli6doctorNtB4_9DoctorFix12is_automatic
FNDA:176,_RNvNtCsadPz79N6wDl_11calypso_cli6doctor10make_check
FNDA:93,_RNvNtCsadPz79N6wDl_11calypso_cli6doctor11failing_fix
FNDA:0,_RNvNtCsadPz79N6wDl_11calypso_cli6doctor11run_command
FNDA:176,_RNvNtCsadPz79N6wDl_11calypso_cli6doctor16status_from_bool
FNDA:93,_RNvNtCsadPz79N6wDl_11calypso_cli6doctor18failing_doctor_fix
FNDA:7,_RNvNtCsadPz79N6wDl_11calypso_cli6doctor18render_fix_verbose
FNDA:7,_RNvNtCsadPz79N6wDl_11calypso_cli6doctor20render_doctor_report
FNDA:1,_RNvNtCsadPz79N6wDl_11calypso_cli6doctor28render_doctor_report_verbose
FNDA:1,_RNvNtCsadPz79N6wDl_11calypso_cli6doctor9apply_fix
FNDA:6,_RNvXs1_NtCsadPz79N6wDl_11calypso_cli6doctorNtB5_21HostDoctorEnvironmentNtB5_17DoctorEnvironment11github_user
FNDA:11,_RNvXs1_NtCsadPz79N6wDl_11calypso_cli6doctorNtB5_21HostDoctorEnvironmentNtB5_17DoctorEnvironment11is_git_repo
FNDA:22,_RNvXs1_NtCsadPz79N6wDl_11calypso_cli6doctorNtB5_21HostDoctorEnvironmentNtB5_17DoctorEnvironment14command_exists
FNDA:11,_RNvXs1_NtCsadPz79N6wDl_11calypso_cli6doctorNtB5_21HostDoctorEnvironmentNtB5_17DoctorEnvironment16claude_reachable
FNDA:11,_RNvXs1_NtCsadPz79N6wDl_11calypso_cli6doctorNtB5_21HostDoctorEnvironmentNtB5_17DoctorEnvironment16gh_authenticated
FNDA:22,_RNvXs1_NtCsadPz79N6wDl_11calypso_cli6doctorNtB5_21HostDoctorEnvironmentNtB5_17DoctorEnvironment17has_github_remote
FNDA:11,_RNvXs1_NtCsadPz79N6wDl_11calypso_cli6doctorNtB5_21HostDoctorEnvironmentNtB5_17DoctorEnvironment22missing_workflow_files
FNDA:11,_RINvNtCsadPz79N6wDl_11calypso_cli6doctor21collect_doctor_reportNtB2_21HostDoctorEnvironmentEB4_
FNDA:11,_RNCINvNtCsadPz79N6wDl_11calypso_cli6doctor21collect_doctor_reportNtB4_21HostDoctorEnvironmentE0B6_
FNDA:4,_RNCINvNtCsadPz79N6wDl_11calypso_cli6doctor21collect_doctor_reportNtB4_21HostDoctorEnvironmentEs0_0B6_
FNDA:0,_RNCINvNtCsadPz79N6wDl_11calypso_cli6doctor21collect_doctor_reportNtB4_21HostDoctorEnvironmentEs_0B6_
FNDA:41,_RNCNCNvNtCsadPz79N6wDl_11calypso_cli6doctor18failing_doctor_fixs_00B7_
FNDA:24,_RNCNvMs0_NtCsadPz79N6wDl_11calypso_cli6doctorNtB7_12DoctorReport19to_builtin_evidence0B9_
FNDA:93,_RNCNvNtCsadPz79N6wDl_11calypso_cli6doctor10make_check0B5_
FNDA:93,_RNCNvNtCsadPz79N6wDl_11calypso_cli6doctor10make_checks_0B5_
FNDA:0,_RNCNvNtCsadPz79N6wDl_11calypso_cli6doctor11run_command0B5_
FNDA:41,_RNCNvNtCsadPz79N6wDl_11calypso_cli6doctor18failing_doctor_fix0B5_
FNDA:41,_RNCNvNtCsadPz79N6wDl_11calypso_cli6doctor18failing_doctor_fixs_0B5_
FNDA:0,_RNCNvNtCsadPz79N6wDl_11calypso_cli6doctor9apply_fix0B5_
FNDA:0,_RNCNvNtCsadPz79N6wDl_11calypso_cli6doctor9apply_fixs_0B5_
FNDA:11,_RNCNvXs1_NtCsadPz79N6wDl_11calypso_cli6doctorNtB7_21HostDoctorEnvironmentNtB7_17DoctorEnvironment11is_git_repo0B9_
FNDA:22,_RNCNvXs1_NtCsadPz79N6wDl_11calypso_cli6doctorNtB7_21HostDoctorEnvironmentNtB7_17DoctorEnvironment14command_exists0B9_
FNDA:11,_RNCNvXs1_NtCsadPz79N6wDl_11calypso_cli6doctorNtB7_21HostDoctorEnvironmentNtB7_17DoctorEnvironment16gh_authenticated0B9_
FNDA:22,_RNCNvXs1_NtCsadPz79N6wDl_11calypso_cli6doctorNtB7_21HostDoctorEnvironmentNtB7_17DoctorEnvironment17has_github_remote0B9_
FNDA:66,_RNCNvXs1_NtCsadPz79N6wDl_11calypso_cli6doctorNtB7_21HostDoctorEnvironmentNtB7_17DoctorEnvironment22missing_workflow_files0B9_
FNDA:36,_RNCNvXs1_NtCsadPz79N6wDl_11calypso_cli6doctorNtB7_21HostDoctorEnvironmentNtB7_17DoctorEnvironment22missing_workflow_filess_0B9_
FNDA:0,_RNvMNtCsk43tzqYvrEx_11calypso_cli6doctorNtB2_13DoctorCheckId11builtin_key
FNDA:8,_RNvMNtCsk43tzqYvrEx_11calypso_cli6doctorNtB2_13DoctorCheckId5label
FNDA:0,_RNvMs0_NtCsk43tzqYvrEx_11calypso_cli6doctorNtB5_12DoctorReport19to_builtin_evidence
FNDA:4,_RNvMs_NtCsk43tzqYvrEx_11calypso_cli6doctorNtB4_9DoctorFix12is_automatic
FNDA:0,_RNvNtCsk43tzqYvrEx_11calypso_cli6doctor10make_check
FNDA:0,_RNvNtCsk43tzqYvrEx_11calypso_cli6doctor11failing_fix
FNDA:1,_RNvNtCsk43tzqYvrEx_11calypso_cli6doctor11run_command
FNDA:0,_RNvNtCsk43tzqYvrEx_11calypso_cli6doctor16status_from_bool
FNDA:0,_RNvNtCsk43tzqYvrEx_11calypso_cli6doctor18failing_doctor_fix
FNDA:3,_RNvNtCsk43tzqYvrEx_11calypso_cli6doctor9apply_fix
FNDA:0,_RNvXs1_NtCsk43tzqYvrEx_11calypso_cli6doctorNtB5_21HostDoctorEnvironmentNtB5_17DoctorEnvironment11github_user
FNDA:0,_RNvXs1_NtCsk43tzqYvrEx_11calypso_cli6doctorNtB5_21HostDoctorEnvironmentNtB5_17DoctorEnvironment11is_git_repo
FNDA:0,_RNvXs1_NtCsk43tzqYvrEx_11calypso_cli6doctorNtB5_21HostDoctorEnvironmentNtB5_17DoctorEnvironment14command_exists
FNDA:0,_RNvXs1_NtCsk43tzqYvrEx_11calypso_cli6doctorNtB5_21HostDoctorEnvironmentNtB5_17DoctorEnvironment16claude_reachable
FNDA:0,_RNvXs1_NtCsk43tzqYvrEx_11calypso_cli6doctorNtB5_21HostDoctorEnvironmentNtB5_17DoctorEnvironment16gh_authenticated
FNDA:0,_RNvXs1_NtCsk43tzqYvrEx_11calypso_cli6doctorNtB5_21HostDoctorEnvironmentNtB5_17DoctorEnvironment17has_github_remote
FNDA:1,_RNvXs1_NtCsk43tzqYvrEx_11calypso_cli6doctorNtB5_21HostDoctorEnvironmentNtB5_17DoctorEnvironment22missing_workflow_files
FNDA:0,_RNvNtCsk43tzqYvrEx_11calypso_cli6doctor18render_fix_verbose
FNDA:0,_RNvNtCsk43tzqYvrEx_11calypso_cli6doctor20render_doctor_report
FNDA:0,_RNvNtCsk43tzqYvrEx_11calypso_cli6doctor28render_doctor_report_verbose
FNDA:0,_RINvNtCsk43tzqYvrEx_11calypso_cli6doctor21collect_doctor_reportNtB2_21HostDoctorEnvironmentEB4_
FNDA:0,_RNCINvNtCsk43tzqYvrEx_11calypso_cli6doctor21collect_doctor_reportNtB4_21HostDoctorEnvironmentE0B6_
FNDA:0,_RNCINvNtCsk43tzqYvrEx_11calypso_cli6doctor21collect_doctor_reportNtB4_21HostDoctorEnvironmentEs0_0B6_
FNDA:0,_RNCINvNtCsk43tzqYvrEx_11calypso_cli6doctor21collect_doctor_reportNtB4_21HostDoctorEnvironmentEs_0B6_
FNDA:0,_RNCNCNvNtCsk43tzqYvrEx_11calypso_cli6doctor18failing_doctor_fixs_00B7_
FNDA:0,_RNCNvMs0_NtCsk43tzqYvrEx_11calypso_cli6doctorNtB7_12DoctorReport19to_builtin_evidence0B9_
FNDA:0,_RNCNvNtCsk43tzqYvrEx_11calypso_cli6doctor10make_check0B5_
FNDA:0,_RNCNvNtCsk43tzqYvrEx_11calypso_cli6doctor10make_checks_0B5_
FNDA:0,_RNCNvNtCsk43tzqYvrEx_11calypso_cli6doctor11run_command0B5_
FNDA:0,_RNCNvNtCsk43tzqYvrEx_11calypso_cli6doctor18failing_doctor_fix0B5_
FNDA:0,_RNCNvNtCsk43tzqYvrEx_11calypso_cli6doctor18failing_doctor_fixs_0B5_
FNDA:0,_RNCNvNtCsk43tzqYvrEx_11calypso_cli6doctor9apply_fix0B5_
FNDA:0,_RNCNvNtCsk43tzqYvrEx_11calypso_cli6doctor9apply_fixs_0B5_
FNDA:0,_RNCNvXs1_NtCsk43tzqYvrEx_11calypso_cli6doctorNtB7_21HostDoctorEnvironmentNtB7_17DoctorEnvironment11is_git_repo0B9_
FNDA:0,_RNCNvXs1_NtCsk43tzqYvrEx_11calypso_cli6doctorNtB7_21HostDoctorEnvironmentNtB7_17DoctorEnvironment14command_exists0B9_
FNDA:0,_RNCNvXs1_NtCsk43tzqYvrEx_11calypso_cli6doctorNtB7_21HostDoctorEnvironmentNtB7_17DoctorEnvironment16gh_authenticated0B9_
FNDA:0,_RNCNvXs1_NtCsk43tzqYvrEx_11calypso_cli6doctorNtB7_21HostDoctorEnvironmentNtB7_17DoctorEnvironment17has_github_remote0B9_
FNDA:6,_RNCNvXs1_NtCsk43tzqYvrEx_11calypso_cli6doctorNtB7_21HostDoctorEnvironmentNtB7_17DoctorEnvironment22missing_workflow_files0B9_
FNDA:5,_RNCNvXs1_NtCsk43tzqYvrEx_11calypso_cli6doctorNtB7_21HostDoctorEnvironmentNtB7_17DoctorEnvironment22missing_workflow_filess_0B9_
FNDA:1,_RNvNtNtCsk43tzqYvrEx_11calypso_cli6doctor5tests15unique_temp_dir
FNDA:1,_RNvNtNtCsk43tzqYvrEx_11calypso_cli6doctor5testss_39apply_fix_sequence_stops_on_first_error
FNDA:1,_RNvNtNtCsk43tzqYvrEx_11calypso_cli6doctor5testss_47doctor_fix_is_automatic_for_non_manual_variants
FNDA:1,_RNvNtNtCsk43tzqYvrEx_11calypso_cli6doctor5testss_54apply_fix_write_file_creates_parent_and_writes_content
FNDA:1,_RNvNtNtCsk43tzqYvrEx_11calypso_cli6doctor5testss_56host_environment_reports_missing_required_workflow_files
FNDA:11,_RINvNtCsadPz79N6wDl_11calypso_cli6doctor21collect_doctor_reportNtCs1Hna8M9sE5K_6doctor15FakeEnvironmentEB11_
FNDA:11,_RNCINvNtCsadPz79N6wDl_11calypso_cli6doctor21collect_doctor_reportNtCs1Hna8M9sE5K_6doctor15FakeEnvironmentE0B13_
FNDA:1,_RNCINvNtCsadPz79N6wDl_11calypso_cli6doctor21collect_doctor_reportNtCs1Hna8M9sE5K_6doctor15FakeEnvironmentEs0_0B13_
FNDA:0,_RNCINvNtCsadPz79N6wDl_11calypso_cli6doctor21collect_doctor_reportNtCs1Hna8M9sE5K_6doctor15FakeEnvironmentEs_0B13_
FNF:44
FNH:40
DA:31,24
DA:32,24
DA:33,3
DA:34,3
DA:35,3
DA:36,3
DA:37,3
DA:38,3
DA:40,3
DA:42,3
DA:44,24
DA:46,104
DA:47,104
DA:48,19
DA:49,16
DA:50,11
DA:51,14
DA:52,11
DA:53,11
DA:54,11
DA:55,11
DA:57,104
DA:87,15
DA:88,15
DA:89,15
DA:108,3
DA:109,3
DA:110,3
DA:111,24
DA:112,24
DA:113,24
DA:114,24
DA:116,24
DA:117,3
DA:135,11
DA:136,11
DA:137,11
DA:138,11
DA:139,11
DA:140,11
DA:142,22
DA:143,22
DA:144,22
DA:145,22
DA:146,22
DA:147,22
DA:149,11
DA:150,11
DA:151,11
DA:153,11
DA:154,11
DA:155,11
DA:156,11
DA:157,11
DA:158,11
DA:160,22
DA:161,22
DA:162,22
DA:163,22
DA:164,22
DA:165,22
DA:166,22
DA:168,12
DA:169,12
DA:170,12
DA:171,12
DA:172,72
DA:173,41
DA:174,12
DA:175,12
DA:176,12
DA:177,12
DA:179,6
DA:180,6
DA:181,6
DA:182,6
DA:183,6
DA:184,6
DA:185,4
DA:186,4
DA:188,2
DA:190,6
DA:193,22
DA:194,22
DA:195,22
DA:196,22
DA:197,22
DA:198,22
DA:199,22
DA:200,22
DA:202,22
DA:203,14
DA:205,8
DA:208,22
DA:209,22
DA:210,22
DA:211,22
DA:214,22
DA:215,22
DA:216,22
DA:217,22
DA:218,22
DA:219,22
DA:220,22
DA:221,22
DA:223,22
DA:224,22
DA:225,22
DA:226,22
DA:227,22
DA:228,22
DA:229,22
DA:231,22
DA:232,22
DA:233,22
DA:234,22
DA:235,22
DA:236,22
DA:237,22
DA:239,22
DA:240,22
DA:241,22
DA:242,22
DA:243,22
DA:244,22
DA:245,22
DA:247,22
DA:248,22
DA:249,22
DA:250,22
DA:251,22
DA:252,22
DA:253,22
DA:255,22
DA:256,22
DA:257,22
DA:258,22
DA:259,22
DA:260,22
DA:261,22
DA:263,22
DA:264,22
DA:265,22
DA:266,22
DA:267,22
DA:268,22
DA:269,22
DA:271,22
DA:272,22
DA:273,22
DA:274,22
DA:275,22
DA:276,0
DA:278,22
DA:280,22
DA:281,22
DA:285,22
DA:287,176
DA:288,176
DA:289,83
DA:291,93
DA:293,176
DA:299,176
DA:300,176
DA:301,176
DA:302,176
DA:303,176
DA:304,176
DA:305,176
DA:306,176
DA:307,176
DA:308,176
DA:309,176
DA:310,176
DA:311,176
DA:312,176
DA:313,176
DA:315,176
DA:316,176
DA:317,176
DA:318,176
DA:319,176
DA:320,176
DA:321,176
DA:322,176
DA:323,176
DA:325,7
DA:326,7
DA:328,63
DA:329,56
DA:330,26
DA:332,30
DA:334,56
DA:336,56
DA:337,13
DA:338,43
DA:340,56
DA:341,30
DA:342,30
DA:345,7
DA:346,7
DA:349,1
DA:350,1
DA:352,9
DA:353,8
DA:354,1
DA:356,7
DA:358,8
DA:360,8
DA:361,1
DA:362,7
DA:364,8
DA:365,7
DA:366,7
DA:368,8
DA:369,7
DA:370,7
DA:373,1
DA:374,1
DA:376,7
DA:377,7
DA:378,2
DA:379,2
DA:380,2
DA:381,5
DA:382,5
DA:383,5
DA:384,0
DA:385,0
DA:386,0
DA:387,0
DA:388,0
DA:389,0
DA:390,0
DA:391,0
DA:394,7
DA:399,4
DA:400,4
DA:401,1
DA:402,1
DA:403,1
DA:404,1
DA:405,1
DA:406,1
DA:407,0
DA:408,1
DA:409,1
DA:410,1
DA:412,1
DA:413,1
DA:414,1
DA:415,1
DA:416,0
DA:417,0
DA:418,0
DA:419,0
DA:421,1
DA:424,0
DA:427,4
DA:429,1
DA:430,1
DA:431,1
DA:432,1
DA:433,1
DA:434,1
DA:436,1
DA:437,1
DA:439,1
DA:440,0
DA:442,1
DA:443,1
DA:445,0
DA:448,1
DA:450,93
DA:451,93
DA:452,93
DA:453,93
DA:454,93
DA:455,93
DA:456,93
DA:458,8
DA:459,8
DA:460,8
DA:461,9
DA:462,9
DA:463,9
DA:464,11
DA:465,11
DA:466,11
DA:469,11
DA:470,11
DA:471,11
DA:472,11
DA:473,11
DA:474,11
DA:475,11
DA:476,11
DA:479,9
DA:480,9
DA:481,9
DA:482,9
DA:487,14
DA:488,5
DA:489,5
DA:490,5
DA:491,5
DA:492,5
DA:493,5
DA:494,5
DA:495,5
DA:496,5
DA:497,5
DA:498,5
DA:500,9
DA:501,9
DA:502,9
DA:503,9
DA:504,9
DA:510,9
DA:511,9
DA:512,9
DA:513,9
DA:514,9
DA:515,41
DA:516,9
DA:518,9
DA:519,0
DA:520,9
DA:522,9
DA:523,9
DA:524,41
DA:525,41
DA:526,41
DA:527,41
DA:528,41
DA:529,41
DA:530,9
DA:533,9
DA:534,9
DA:535,9
DA:536,9
DA:537,9
DA:538,9
DA:539,9
DA:540,9
DA:541,9
DA:542,9
DA:543,9
DA:544,9
DA:545,9
DA:546,9
DA:547,9
DA:548,9
DA:550,9
DA:554,22
DA:555,22
DA:556,22
DA:557,22
DA:558,22
DA:560,93
DA:562,93
DA:563,93
DA:565,11
DA:568,8
DA:571,9
DA:574,11
DA:577,9
DA:580,14
DA:581,5
DA:582,5
DA:583,5
DA:585,9
DA:586,9
DA:587,9
DA:588,9
DA:591,9
DA:592,9
DA:593,9
DA:594,9
DA:596,22
DA:599,93
DA:606,1
DA:607,1
DA:608,1
DA:609,1
DA:610,1
DA:611,1
DA:612,1
DA:613,1
DA:614,1
DA:615,1
DA:618,1
DA:619,1
DA:620,1
DA:621,1
DA:624,1
DA:626,1
DA:628,1
DA:630,1
DA:631,1
DA:632,1
DA:633,1
DA:634,1
DA:635,1
DA:639,1
DA:640,1
DA:643,1
DA:644,1
DA:645,1
DA:646,1
DA:647,1
DA:648,1
DA:649,1
DA:651,1
DA:652,1
DA:653,1
DA:654,1
DA:655,1
DA:656,1
DA:658,1
DA:659,1
DA:660,1
DA:661,1
DA:662,1
DA:663,1
DA:665,1
DA:668,1
DA:669,1
DA:670,1
DA:671,1
DA:672,1
DA:673,1
DA:674,1
DA:675,1
DA:676,1
DA:677,1
DA:678,1
DA:679,1
DA:680,1
DA:681,1
DA:682,1
DA:685,1
DA:686,1
DA:689,1
DA:690,1
DA:691,1
DA:692,1
DA:693,1
DA:694,1
DA:695,1
DA:696,1
DA:697,1
DA:698,1
DA:699,1
DA:700,1
DA:701,1
DA:702,1
DA:703,1
BRF:0
BRH:0
LF:475
LH:452
end_of_record
SF:/home/lucas/calypso/.claude/worktrees/agent-a62ed768/cli/src/driver.rs
FN:113,_RNvMs_NtCsadPz79N6wDl_11calypso_cli6driverNtB4_18StateMachineDriver18execute_agent_step
FN:98,_RNvMs_NtCsadPz79N6wDl_11calypso_cli6driverNtB4_18StateMachineDriver21execute_function_step
FN:83,_RNvMs_NtCsadPz79N6wDl_11calypso_cli6driverNtB4_18StateMachineDriver4step
FN:151,_RNvMs_NtCsadPz79N6wDl_11calypso_cli6driverNtB4_18StateMachineDriver8run_auto
FN:174,_RNvNtCsadPz79N6wDl_11calypso_cli6driver22dispatch_function_step
FN:37,_RNvXNtCsadPz79N6wDl_11calypso_cli6driverNtB2_12RealExecutorNtB2_15SessionExecutor3run
FN:119,_RNCNvMs_NtCsadPz79N6wDl_11calypso_cli6driverNtB6_18StateMachineDriver18execute_agent_step0B8_
FN:124,_RNCNvMs_NtCsadPz79N6wDl_11calypso_cli6driverNtB6_18StateMachineDriver18execute_agent_steps0_0B8_
FN:120,_RNCNvMs_NtCsadPz79N6wDl_11calypso_cli6driverNtB6_18StateMachineDriver18execute_agent_steps_0B8_
FN:102,_RNCNvMs_NtCsadPz79N6wDl_11calypso_cli6driverNtB6_18StateMachineDriver21execute_function_step0B8_
FN:182,_RNCNvNtCsadPz79N6wDl_11calypso_cli6driver22dispatch_function_step0B5_
FN:194,_RNCNvNtCsadPz79N6wDl_11calypso_cli6driver22dispatch_function_steps0_0B5_
FN:200,_RNCNvNtCsadPz79N6wDl_11calypso_cli6driver22dispatch_function_steps1_0B5_
FN:207,_RNCNvNtCsadPz79N6wDl_11calypso_cli6driver22dispatch_function_steps2_0B5_
FN:208,_RNCNvNtCsadPz79N6wDl_11calypso_cli6driver22dispatch_function_steps3_0B5_
FN:187,_RNCNvNtCsadPz79N6wDl_11calypso_cli6driver22dispatch_function_steps_0B5_
FN:246,_RNvNtNtCsk43tzqYvrEx_11calypso_cli6driver5testss_33driver_mode_variants_are_distinct
FN:233,_RNvNtNtCsk43tzqYvrEx_11calypso_cli6driver5testss_41step_type_unknown_state_defaults_to_agent
FN:240,_RNvNtNtCsk43tzqYvrEx_11calypso_cli6driver5testss_48function_for_state_returns_none_for_simple_state
FN:226,_RNvNtNtCsk43tzqYvrEx_11calypso_cli6driver5testss_49step_type_defaults_to_agent_for_simple_state_name
FN:119,_RNCNvMs_NtCsk43tzqYvrEx_11calypso_cli6driverNtB6_18StateMachineDriver18execute_agent_step0B8_
FN:124,_RNCNvMs_NtCsk43tzqYvrEx_11calypso_cli6driverNtB6_18StateMachineDriver18execute_agent_steps0_0B8_
FN:120,_RNCNvMs_NtCsk43tzqYvrEx_11calypso_cli6driverNtB6_18StateMachineDriver18execute_agent_steps_0B8_
FN:102,_RNCNvMs_NtCsk43tzqYvrEx_11calypso_cli6driverNtB6_18StateMachineDriver21execute_function_step0B8_
FN:182,_RNCNvNtCsk43tzqYvrEx_11calypso_cli6driver22dispatch_function_step0B5_
FN:194,_RNCNvNtCsk43tzqYvrEx_11calypso_cli6driver22dispatch_function_steps0_0B5_
FN:200,_RNCNvNtCsk43tzqYvrEx_11calypso_cli6driver22dispatch_function_steps1_0B5_
FN:207,_RNCNvNtCsk43tzqYvrEx_11calypso_cli6driver22dispatch_function_steps2_0B5_
FN:208,_RNCNvNtCsk43tzqYvrEx_11calypso_cli6driver22dispatch_function_steps3_0B5_
FN:187,_RNCNvNtCsk43tzqYvrEx_11calypso_cli6driver22dispatch_function_steps_0B5_
FN:113,_RNvMs_NtCsk43tzqYvrEx_11calypso_cli6driverNtB4_18StateMachineDriver18execute_agent_step
FN:98,_RNvMs_NtCsk43tzqYvrEx_11calypso_cli6driverNtB4_18StateMachineDriver21execute_function_step
FN:83,_RNvMs_NtCsk43tzqYvrEx_11calypso_cli6driverNtB4_18StateMachineDriver4step
FN:151,_RNvMs_NtCsk43tzqYvrEx_11calypso_cli6driverNtB4_18StateMachineDriver8run_auto
FN:174,_RNvNtCsk43tzqYvrEx_11calypso_cli6driver22dispatch_function_step
FN:37,_RNvXNtCsk43tzqYvrEx_11calypso_cli6driverNtB2_12RealExecutorNtB2_15SessionExecutor3run
FNDA:8,_RNvMs_NtCsadPz79N6wDl_11calypso_cli6driverNtB4_18StateMachineDriver18execute_agent_step
FNDA:0,_RNvMs_NtCsadPz79N6wDl_11calypso_cli6driverNtB4_18StateMachineDriver21execute_function_step
FNDA:11,_RNvMs_NtCsadPz79N6wDl_11calypso_cli6driverNtB4_18StateMachineDriver4step
FNDA:2,_RNvMs_NtCsadPz79N6wDl_11calypso_cli6driverNtB4_18StateMachineDriver8run_auto
FNDA:0,_RNvNtCsadPz79N6wDl_11calypso_cli6driver22dispatch_function_step
FNDA:0,_RNvXNtCsadPz79N6wDl_11calypso_cli6driverNtB2_12RealExecutorNtB2_15SessionExecutor3run
FNDA:12,_RNCNvMs_NtCsadPz79N6wDl_11calypso_cli6driverNtB6_18StateMachineDriver18execute_agent_step0B8_
FNDA:8,_RNCNvMs_NtCsadPz79N6wDl_11calypso_cli6driverNtB6_18StateMachineDriver18execute_agent_steps0_0B8_
FNDA:8,_RNCNvMs_NtCsadPz79N6wDl_11calypso_cli6driverNtB6_18StateMachineDriver18execute_agent_steps_0B8_
FNDA:0,_RNCNvMs_NtCsadPz79N6wDl_11calypso_cli6driverNtB6_18StateMachineDriver21execute_function_step0B8_
FNDA:0,_RNCNvNtCsadPz79N6wDl_11calypso_cli6driver22dispatch_function_step0B5_
FNDA:0,_RNCNvNtCsadPz79N6wDl_11calypso_cli6driver22dispatch_function_steps0_0B5_
FNDA:0,_RNCNvNtCsadPz79N6wDl_11calypso_cli6driver22dispatch_function_steps1_0B5_
FNDA:0,_RNCNvNtCsadPz79N6wDl_11calypso_cli6driver22dispatch_function_steps2_0B5_
FNDA:0,_RNCNvNtCsadPz79N6wDl_11calypso_cli6driver22dispatch_function_steps3_0B5_
FNDA:0,_RNCNvNtCsadPz79N6wDl_11calypso_cli6driver22dispatch_function_steps_0B5_
FNDA:1,_RNvNtNtCsk43tzqYvrEx_11calypso_cli6driver5testss_33driver_mode_variants_are_distinct
FNDA:1,_RNvNtNtCsk43tzqYvrEx_11calypso_cli6driver5testss_41step_type_unknown_state_defaults_to_agent
FNDA:1,_RNvNtNtCsk43tzqYvrEx_11calypso_cli6driver5testss_48function_for_state_returns_none_for_simple_state
FNDA:1,_RNvNtNtCsk43tzqYvrEx_11calypso_cli6driver5testss_49step_type_defaults_to_agent_for_simple_state_name
FNDA:0,_RNCNvMs_NtCsk43tzqYvrEx_11calypso_cli6driverNtB6_18StateMachineDriver18execute_agent_step0B8_
FNDA:0,_RNCNvMs_NtCsk43tzqYvrEx_11calypso_cli6driverNtB6_18StateMachineDriver18execute_agent_steps0_0B8_
FNDA:0,_RNCNvMs_NtCsk43tzqYvrEx_11calypso_cli6driverNtB6_18StateMachineDriver18execute_agent_steps_0B8_
FNDA:0,_RNCNvMs_NtCsk43tzqYvrEx_11calypso_cli6driverNtB6_18StateMachineDriver21execute_function_step0B8_
FNDA:0,_RNCNvNtCsk43tzqYvrEx_11calypso_cli6driver22dispatch_function_step0B5_
FNDA:0,_RNCNvNtCsk43tzqYvrEx_11calypso_cli6driver22dispatch_function_steps0_0B5_
FNDA:0,_RNCNvNtCsk43tzqYvrEx_11calypso_cli6driver22dispatch_function_steps1_0B5_
FNDA:0,_RNCNvNtCsk43tzqYvrEx_11calypso_cli6driver22dispatch_function_steps2_0B5_
FNDA:0,_RNCNvNtCsk43tzqYvrEx_11calypso_cli6driver22dispatch_function_steps3_0B5_
FNDA:0,_RNCNvNtCsk43tzqYvrEx_11calypso_cli6driver22dispatch_function_steps_0B5_
FNDA:0,_RNvMs_NtCsk43tzqYvrEx_11calypso_cli6driverNtB4_18StateMachineDriver18execute_agent_step
FNDA:0,_RNvMs_NtCsk43tzqYvrEx_11calypso_cli6driverNtB4_18StateMachineDriver21execute_function_step
FNDA:0,_RNvMs_NtCsk43tzqYvrEx_11calypso_cli6driverNtB4_18StateMachineDriver4step
FNDA:0,_RNvMs_NtCsk43tzqYvrEx_11calypso_cli6driverNtB4_18StateMachineDriver8run_auto
FNDA:0,_RNvNtCsk43tzqYvrEx_11calypso_cli6driver22dispatch_function_step
FNDA:0,_RNvXNtCsk43tzqYvrEx_11calypso_cli6driverNtB2_12RealExecutorNtB2_15SessionExecutor3run
FNF:20
FNH:10
DA:37,0
DA:38,0
DA:39,0
DA:40,0
DA:41,0
DA:42,0
DA:43,0
DA:44,0
DA:83,11
DA:84,11
DA:85,8
DA:86,3
DA:89,8
DA:90,8
DA:92,8
DA:93,0
DA:94,8
DA:96,11
DA:98,0
DA:99,0
DA:100,0
DA:101,0
DA:102,0
DA:104,0
DA:105,0
DA:106,0
DA:107,0
DA:109,0
DA:111,0
DA:113,8
DA:114,8
DA:115,8
DA:116,8
DA:117,8
DA:118,8
DA:119,12
DA:120,8
DA:121,0
DA:122,8
DA:123,8
DA:124,8
DA:126,8
DA:127,8
DA:129,0
DA:132,8
DA:133,8
DA:134,6
DA:135,6
DA:136,6
DA:137,2
DA:138,0
DA:139,0
DA:140,0
DA:142,0
DA:144,0
DA:146,8
DA:151,2
DA:152,2
DA:154,2
DA:155,2
DA:156,2
DA:162,2
DA:163,2
DA:164,2
DA:165,0
DA:167,2
DA:168,2
DA:174,0
DA:175,0
DA:176,0
DA:177,0
DA:178,0
DA:179,0
DA:180,0
DA:181,0
DA:182,0
DA:183,0
DA:184,0
DA:185,0
DA:186,0
DA:187,0
DA:188,0
DA:190,0
DA:192,0
DA:193,0
DA:194,0
DA:195,0
DA:196,0
DA:197,0
DA:198,0
DA:199,0
DA:200,0
DA:201,0
DA:202,0
DA:204,0
DA:205,0
DA:206,0
DA:207,0
DA:208,0
DA:209,0
DA:210,0
DA:215,0
DA:218,0
DA:226,1
DA:227,1
DA:228,1
DA:229,1
DA:230,1
DA:233,1
DA:234,1
DA:235,1
DA:236,1
DA:237,1
DA:240,1
DA:241,1
DA:242,1
DA:243,1
DA:246,1
DA:247,1
DA:248,1
BRF:0
BRH:0
LF:130
LH:59
end_of_record
SF:/home/lucas/calypso/.claude/worktrees/agent-a62ed768/cli/src/error.rs
FN:12,_RNCNvNtCsadPz79N6wDl_11calypso_cli5error18REDACTION_REGISTRY0B5_
FN:42,_RNCNvNtCsadPz79N6wDl_11calypso_cli5error6redact0B5_
FN:199,_RINvMs_NtCsk43tzqYvrEx_11calypso_cli5errorNtB5_12CalypsoError10github_apipEB7_
FN:148,_RINvMs_NtCsk43tzqYvrEx_11calypso_cli5errorNtB5_12CalypsoError12with_contextppEB7_
FN:167,_RINvMs_NtCsk43tzqYvrEx_11calypso_cli5errorNtB5_12CalypsoError13provider_authpEB7_
FN:219,_RINvMs_NtCsk43tzqYvrEx_11calypso_cli5errorNtB5_12CalypsoError16state_corruptionpEB7_
FN:227,_RINvMs_NtCsk43tzqYvrEx_11calypso_cli5errorNtB5_12CalypsoError16studio_lifecyclepEB7_
FN:175,_RINvMs_NtCsk43tzqYvrEx_11calypso_cli5errorNtB5_12CalypsoError16subprocess_spawnpEB7_
FN:211,_RINvMs_NtCsk43tzqYvrEx_11calypso_cli5errorNtB5_12CalypsoError21missing_clarificationpEB7_
FN:203,_RINvMs_NtCsk43tzqYvrEx_11calypso_cli5errorNtB5_12CalypsoError24invalid_state_transitionpEB7_
FN:183,_RINvMs_NtCsk43tzqYvrEx_11calypso_cli5errorNtB5_12CalypsoError25malformed_provider_outputpEB7_
FN:195,_RINvMs_NtCsk43tzqYvrEx_11calypso_cli5errorNtB5_12CalypsoError3gitpEB7_
FN:134,_RINvMs_NtCsk43tzqYvrEx_11calypso_cli5errorNtB5_12CalypsoError3newppEB7_
FN:191,_RINvMs_NtCsk43tzqYvrEx_11calypso_cli5errorNtB5_12CalypsoError9transportpEB7_
FN:17,_RINvNtCsk43tzqYvrEx_11calypso_cli5error15register_secretpEB4_
FN:42,_RNCNvNtCsk43tzqYvrEx_11calypso_cli5error6redact0B5_
FN:159,_RNvMs_NtCsk43tzqYvrEx_11calypso_cli5errorNtB4_12CalypsoError11emit_stderr
FN:154,_RNvMs_NtCsk43tzqYvrEx_11calypso_cli5errorNtB4_12CalypsoError7to_json
FN:36,_RNvNtCsk43tzqYvrEx_11calypso_cli5error6redact
FN:86,_RNvXNtCsk43tzqYvrEx_11calypso_cli5errorNtB2_14RecoverabilityNtNtCs3XFJfFEDSOQ_4core3fmt7Display3fmt
FN:237,_RNvXs0_NtCsk43tzqYvrEx_11calypso_cli5errorNtB5_12CalypsoErrorNtNtCs3XFJfFEDSOQ_4core3fmt7Display3fmt
FN:12,_RNCNvNtCsk43tzqYvrEx_11calypso_cli5error18REDACTION_REGISTRY0B5_
FN:199,_RINvMs_NtCsadPz79N6wDl_11calypso_cli5errorNtB5_12CalypsoError10github_apiReECsltbgehUCHCI_5error
FN:148,_RINvMs_NtCsadPz79N6wDl_11calypso_cli5errorNtB5_12CalypsoError12with_contextReB1b_ECsltbgehUCHCI_5error
FN:167,_RINvMs_NtCsadPz79N6wDl_11calypso_cli5errorNtB5_12CalypsoError13provider_authReECsltbgehUCHCI_5error
FN:219,_RINvMs_NtCsadPz79N6wDl_11calypso_cli5errorNtB5_12CalypsoError16state_corruptionReECsltbgehUCHCI_5error
FN:227,_RINvMs_NtCsadPz79N6wDl_11calypso_cli5errorNtB5_12CalypsoError16studio_lifecycleReECsltbgehUCHCI_5error
FN:175,_RINvMs_NtCsadPz79N6wDl_11calypso_cli5errorNtB5_12CalypsoError16subprocess_spawnReECsltbgehUCHCI_5error
FN:211,_RINvMs_NtCsadPz79N6wDl_11calypso_cli5errorNtB5_12CalypsoError21missing_clarificationReECsltbgehUCHCI_5error
FN:203,_RINvMs_NtCsadPz79N6wDl_11calypso_cli5errorNtB5_12CalypsoError24invalid_state_transitionReECsltbgehUCHCI_5error
FN:183,_RINvMs_NtCsadPz79N6wDl_11calypso_cli5errorNtB5_12CalypsoError25malformed_provider_outputReECsltbgehUCHCI_5error
FN:195,_RINvMs_NtCsadPz79N6wDl_11calypso_cli5errorNtB5_12CalypsoError3gitReECsltbgehUCHCI_5error
FN:134,_RINvMs_NtCsadPz79N6wDl_11calypso_cli5errorNtB5_12CalypsoError3newReB11_ECsltbgehUCHCI_5error
FN:191,_RINvMs_NtCsadPz79N6wDl_11calypso_cli5errorNtB5_12CalypsoError9transportReECsltbgehUCHCI_5error
FN:17,_RINvNtCsadPz79N6wDl_11calypso_cli5error15register_secretReECsltbgehUCHCI_5error
FN:159,_RNvMs_NtCsadPz79N6wDl_11calypso_cli5errorNtB4_12CalypsoError11emit_stderr
FN:154,_RNvMs_NtCsadPz79N6wDl_11calypso_cli5errorNtB4_12CalypsoError7to_json
FN:36,_RNvNtCsadPz79N6wDl_11calypso_cli5error6redact
FN:86,_RNvXNtCsadPz79N6wDl_11calypso_cli5errorNtB2_14RecoverabilityNtNtCs3XFJfFEDSOQ_4core3fmt7Display3fmt
FN:237,_RNvXs0_NtCsadPz79N6wDl_11calypso_cli5errorNtB5_12CalypsoErrorNtNtCs3XFJfFEDSOQ_4core3fmt7Display3fmt
FNDA:1,_RNCNvNtCsadPz79N6wDl_11calypso_cli5error18REDACTION_REGISTRY0B5_
FNDA:0,_RNCNvNtCsadPz79N6wDl_11calypso_cli5error6redact0B5_
FNDA:0,_RINvMs_NtCsk43tzqYvrEx_11calypso_cli5errorNtB5_12CalypsoError10github_apipEB7_
FNDA:0,_RINvMs_NtCsk43tzqYvrEx_11calypso_cli5errorNtB5_12CalypsoError12with_contextppEB7_
FNDA:0,_RINvMs_NtCsk43tzqYvrEx_11calypso_cli5errorNtB5_12CalypsoError13provider_authpEB7_
FNDA:0,_RINvMs_NtCsk43tzqYvrEx_11calypso_cli5errorNtB5_12CalypsoError16state_corruptionpEB7_
FNDA:0,_RINvMs_NtCsk43tzqYvrEx_11calypso_cli5errorNtB5_12CalypsoError16studio_lifecyclepEB7_
FNDA:0,_RINvMs_NtCsk43tzqYvrEx_11calypso_cli5errorNtB5_12CalypsoError16subprocess_spawnpEB7_
FNDA:0,_RINvMs_NtCsk43tzqYvrEx_11calypso_cli5errorNtB5_12CalypsoError21missing_clarificationpEB7_
FNDA:0,_RINvMs_NtCsk43tzqYvrEx_11calypso_cli5errorNtB5_12CalypsoError24invalid_state_transitionpEB7_
FNDA:0,_RINvMs_NtCsk43tzqYvrEx_11calypso_cli5errorNtB5_12CalypsoError25malformed_provider_outputpEB7_
FNDA:0,_RINvMs_NtCsk43tzqYvrEx_11calypso_cli5errorNtB5_12CalypsoError3gitpEB7_
FNDA:0,_RINvMs_NtCsk43tzqYvrEx_11calypso_cli5errorNtB5_12CalypsoError3newppEB7_
FNDA:0,_RINvMs_NtCsk43tzqYvrEx_11calypso_cli5errorNtB5_12CalypsoError9transportpEB7_
FNDA:0,_RINvNtCsk43tzqYvrEx_11calypso_cli5error15register_secretpEB4_
FNDA:0,_RNCNvNtCsk43tzqYvrEx_11calypso_cli5error6redact0B5_
FNDA:0,_RNvMs_NtCsk43tzqYvrEx_11calypso_cli5errorNtB4_12CalypsoError11emit_stderr
FNDA:0,_RNvMs_NtCsk43tzqYvrEx_11calypso_cli5errorNtB4_12CalypsoError7to_json
FNDA:0,_RNvNtCsk43tzqYvrEx_11calypso_cli5error6redact
FNDA:0,_RNvXNtCsk43tzqYvrEx_11calypso_cli5errorNtB2_14RecoverabilityNtNtCs3XFJfFEDSOQ_4core3fmt7Display3fmt
FNDA:0,_RNvXs0_NtCsk43tzqYvrEx_11calypso_cli5errorNtB5_12CalypsoErrorNtNtCs3XFJfFEDSOQ_4core3fmt7Display3fmt
FNDA:0,_RNCNvNtCsk43tzqYvrEx_11calypso_cli5error18REDACTION_REGISTRY0B5_
FNDA:2,_RINvMs_NtCsadPz79N6wDl_11calypso_cli5errorNtB5_12CalypsoError10github_apiReECsltbgehUCHCI_5error
FNDA:1,_RINvMs_NtCsadPz79N6wDl_11calypso_cli5errorNtB5_12CalypsoError12with_contextReB1b_ECsltbgehUCHCI_5error
FNDA:3,_RINvMs_NtCsadPz79N6wDl_11calypso_cli5errorNtB5_12CalypsoError13provider_authReECsltbgehUCHCI_5error
FNDA:2,_RINvMs_NtCsadPz79N6wDl_11calypso_cli5errorNtB5_12CalypsoError16state_corruptionReECsltbgehUCHCI_5error
FNDA:2,_RINvMs_NtCsadPz79N6wDl_11calypso_cli5errorNtB5_12CalypsoError16studio_lifecycleReECsltbgehUCHCI_5error
FNDA:2,_RINvMs_NtCsadPz79N6wDl_11calypso_cli5errorNtB5_12CalypsoError16subprocess_spawnReECsltbgehUCHCI_5error
FNDA:2,_RINvMs_NtCsadPz79N6wDl_11calypso_cli5errorNtB5_12CalypsoError21missing_clarificationReECsltbgehUCHCI_5error
FNDA:2,_RINvMs_NtCsadPz79N6wDl_11calypso_cli5errorNtB5_12CalypsoError24invalid_state_transitionReECsltbgehUCHCI_5error
FNDA:2,_RINvMs_NtCsadPz79N6wDl_11calypso_cli5errorNtB5_12CalypsoError25malformed_provider_outputReECsltbgehUCHCI_5error
FNDA:5,_RINvMs_NtCsadPz79N6wDl_11calypso_cli5errorNtB5_12CalypsoError3gitReECsltbgehUCHCI_5error
FNDA:27,_RINvMs_NtCsadPz79N6wDl_11calypso_cli5errorNtB5_12CalypsoError3newReB11_ECsltbgehUCHCI_5error
FNDA:5,_RINvMs_NtCsadPz79N6wDl_11calypso_cli5errorNtB5_12CalypsoError9transportReECsltbgehUCHCI_5error
FNDA:2,_RINvNtCsadPz79N6wDl_11calypso_cli5error15register_secretReECsltbgehUCHCI_5error
FNDA:1,_RNvMs_NtCsadPz79N6wDl_11calypso_cli5errorNtB4_12CalypsoError11emit_stderr
FNDA:6,_RNvMs_NtCsadPz79N6wDl_11calypso_cli5errorNtB4_12CalypsoError7to_json
FNDA:12,_RNvNtCsadPz79N6wDl_11calypso_cli5error6redact
FNDA:3,_RNvXNtCsadPz79N6wDl_11calypso_cli5errorNtB2_14RecoverabilityNtNtCs3XFJfFEDSOQ_4core3fmt7Display3fmt
FNDA:1,_RNvXs0_NtCsadPz79N6wDl_11calypso_cli5errorNtB5_12CalypsoErrorNtNtCs3XFJfFEDSOQ_4core3fmt7Display3fmt
FNF:20
FNH:19
DA:12,1
DA:17,2
DA:18,2
DA:19,2
DA:20,1
DA:21,1
DA:22,1
DA:23,1
DA:24,1
DA:25,1
DA:26,1
DA:27,2
DA:36,12
DA:37,12
DA:40,12
DA:41,12
DA:42,12
DA:43,17
DA:44,5
DA:45,5
DA:46,0
DA:49,12
DA:50,12
DA:51,12
DA:52,12
DA:55,12
DA:56,12
DA:58,12
DA:59,12
DA:60,12
DA:61,12
DA:64,12
DA:65,12
DA:67,12
DA:68,12
DA:86,3
DA:87,3
DA:88,1
DA:89,1
DA:90,1
DA:92,3
DA:134,27
DA:135,27
DA:136,27
DA:137,27
DA:138,27
DA:139,27
DA:140,27
DA:141,27
DA:142,27
DA:143,27
DA:144,27
DA:145,27
DA:148,1
DA:149,1
DA:150,1
DA:151,1
DA:154,6
DA:155,6
DA:156,6
DA:159,1
DA:160,1
DA:161,1
DA:167,3
DA:168,3
DA:170,3
DA:171,3
DA:173,3
DA:175,2
DA:176,2
DA:178,2
DA:179,2
DA:181,2
DA:183,2
DA:184,2
DA:186,2
DA:187,2
DA:189,2
DA:191,5
DA:192,5
DA:193,5
DA:195,5
DA:196,5
DA:197,5
DA:199,2
DA:200,2
DA:201,2
DA:203,2
DA:204,2
DA:206,2
DA:207,2
DA:209,2
DA:211,2
DA:212,2
DA:214,2
DA:215,2
DA:217,2
DA:219,2
DA:220,2
DA:222,2
DA:223,2
DA:225,2
DA:227,2
DA:228,2
DA:230,2
DA:231,2
DA:233,2
DA:237,1
DA:238,1
DA:239,1
BRF:0
BRH:0
LF:111
LH:109
end_of_record
SF:/home/lucas/calypso/.claude/worktrees/agent-a62ed768/cli/src/execution.rs
FN:286,_RNvNtCsadPz79N6wDl_11calypso_cli9execution10invoke_raw
FN:521,_RNvNtCsadPz79N6wDl_11calypso_cli9execution11now_rfc3339
FN:232,_RNvNtCsadPz79N6wDl_11calypso_cli9execution12build_prompt
FN:280,_RNvNtCsadPz79N6wDl_11calypso_cli9execution12is_transient
FN:311,_RNvNtCsadPz79N6wDl_11calypso_cli9execution13apply_outcome
FN:436,_RNvNtCsadPz79N6wDl_11calypso_cli9execution13forward_facts
FN:536,_RNvNtCsadPz79N6wDl_11calypso_cli9execution14epoch_to_parts
FN:478,_RNvNtCsadPz79N6wDl_11calypso_cli9execution14finish_session
FN:427,_RNvNtCsadPz79N6wDl_11calypso_cli9execution16mark_agent_gates
FN:258,_RNvNtCsadPz79N6wDl_11calypso_cli9execution17invoke_with_retry
FN:447,_RNvNtCsadPz79N6wDl_11calypso_cli9execution21advance_if_gates_pass
FN:101,_RNvNtCsadPz79N6wDl_11calypso_cli9execution22run_supervised_session
FN:496,_RNvNtCsadPz79N6wDl_11calypso_cli9execution22write_transcript_entry
FN:584,_RNvNtCsadPz79N6wDl_11calypso_cli9execution7is_leap
FN:40,_RNvXNtCsadPz79N6wDl_11calypso_cli9executionNtB2_15ExecutionConfigNtNtCs3XFJfFEDSOQ_4core7default7Default7default
FN:82,_RNvXs_NtCsadPz79N6wDl_11calypso_cli9executionNtB4_14ExecutionErrorNtNtCs3XFJfFEDSOQ_4core3fmt7Display3fmt
FN:527,_RNCNvNtCsadPz79N6wDl_11calypso_cli9execution11now_rfc33390B5_
FN:488,_RNCNvNtCsadPz79N6wDl_11calypso_cli9execution14finish_session0B5_
FN:455,_RNCNvNtCsadPz79N6wDl_11calypso_cli9execution21advance_if_gates_pass0B5_
FN:467,_RNCNvNtCsadPz79N6wDl_11calypso_cli9execution21advance_if_gates_passs_0B5_
FN:620,_RNvNtNtCsk43tzqYvrEx_11calypso_cli9execution5tests13minimal_state
FN:597,_RNvNtNtCsk43tzqYvrEx_11calypso_cli9execution5tests15minimal_feature
FN:647,_RNvNtNtCsk43tzqYvrEx_11calypso_cli9execution5testss_31mark_agent_gates_sets_all_gates
FN:634,_RNvNtNtCsk43tzqYvrEx_11calypso_cli9execution5testss_36build_prompt_contains_role_and_stage
FN:711,_RNvNtNtCsk43tzqYvrEx_11calypso_cli9execution5testss_38finish_session_updates_status_in_place
FN:704,_RNvNtNtCsk43tzqYvrEx_11calypso_cli9execution5testss_40now_rfc3339_produces_parseable_timestamp
FN:736,_RNvNtNtCsk43tzqYvrEx_11calypso_cli9execution5testss_44forward_facts_enables_all_linear_transitions
FN:669,_RNvNtNtCsk43tzqYvrEx_11calypso_cli9execution5testss_50advance_if_gates_pass_advances_from_implementation
FN:745,_RNvNtNtCsk43tzqYvrEx_11calypso_cli9execution5testss_54write_transcript_entry_creates_file_with_jsonl_content
FN:682,_RNvNtNtCsk43tzqYvrEx_11calypso_cli9execution5testss_57advance_if_gates_pass_does_not_advance_when_failing_gates
FN:521,_RNvNtCsk43tzqYvrEx_11calypso_cli9execution11now_rfc3339
FN:232,_RNvNtCsk43tzqYvrEx_11calypso_cli9execution12build_prompt
FN:436,_RNvNtCsk43tzqYvrEx_11calypso_cli9execution13forward_facts
FN:536,_RNvNtCsk43tzqYvrEx_11calypso_cli9execution14epoch_to_parts
FN:478,_RNvNtCsk43tzqYvrEx_11calypso_cli9execution14finish_session
FN:427,_RNvNtCsk43tzqYvrEx_11calypso_cli9execution16mark_agent_gates
FN:447,_RNvNtCsk43tzqYvrEx_11calypso_cli9execution21advance_if_gates_pass
FN:496,_RNvNtCsk43tzqYvrEx_11calypso_cli9execution22write_transcript_entry
FN:584,_RNvNtCsk43tzqYvrEx_11calypso_cli9execution7is_leap
FN:286,_RNvNtCsk43tzqYvrEx_11calypso_cli9execution10invoke_raw
FN:280,_RNvNtCsk43tzqYvrEx_11calypso_cli9execution12is_transient
FN:311,_RNvNtCsk43tzqYvrEx_11calypso_cli9execution13apply_outcome
FN:258,_RNvNtCsk43tzqYvrEx_11calypso_cli9execution17invoke_with_retry
FN:101,_RNvNtCsk43tzqYvrEx_11calypso_cli9execution22run_supervised_session
FN:40,_RNvXNtCsk43tzqYvrEx_11calypso_cli9executionNtB2_15ExecutionConfigNtNtCs3XFJfFEDSOQ_4core7default7Default7default
FN:82,_RNvXs_NtCsk43tzqYvrEx_11calypso_cli9executionNtB4_14ExecutionErrorNtNtCs3XFJfFEDSOQ_4core3fmt7Display3fmt
FN:749,_RNCNvNtNtCsk43tzqYvrEx_11calypso_cli9execution5testss_54write_transcript_entry_creates_file_with_jsonl_content0B7_
FN:527,_RNCNvNtCsk43tzqYvrEx_11calypso_cli9execution11now_rfc33390B5_
FN:488,_RNCNvNtCsk43tzqYvrEx_11calypso_cli9execution14finish_session0B5_
FN:455,_RNCNvNtCsk43tzqYvrEx_11calypso_cli9execution21advance_if_gates_pass0B5_
FN:467,_RNCNvNtCsk43tzqYvrEx_11calypso_cli9execution21advance_if_gates_passs_0B5_
FNDA:9,_RNvNtCsadPz79N6wDl_11calypso_cli9execution10invoke_raw
FNDA:22,_RNvNtCsadPz79N6wDl_11calypso_cli9execution11now_rfc3339
FNDA:9,_RNvNtCsadPz79N6wDl_11calypso_cli9execution12build_prompt
FNDA:0,_RNvNtCsadPz79N6wDl_11calypso_cli9execution12is_transient
FNDA:7,_RNvNtCsadPz79N6wDl_11calypso_cli9execution13apply_outcome
FNDA:4,_RNvNtCsadPz79N6wDl_11calypso_cli9execution13forward_facts
FNDA:22,_RNvNtCsadPz79N6wDl_11calypso_cli9execution14epoch_to_parts
FNDA:9,_RNvNtCsadPz79N6wDl_11calypso_cli9execution14finish_session
FNDA:6,_RNvNtCsadPz79N6wDl_11calypso_cli9execution16mark_agent_gates
FNDA:9,_RNvNtCsadPz79N6wDl_11calypso_cli9execution17invoke_with_retry
FNDA:4,_RNvNtCsadPz79N6wDl_11calypso_cli9execution21advance_if_gates_pass
FNDA:9,_RNvNtCsadPz79N6wDl_11calypso_cli9execution22run_supervised_session
FNDA:9,_RNvNtCsadPz79N6wDl_11calypso_cli9execution22write_transcript_entry
FNDA:1276,_RNvNtCsadPz79N6wDl_11calypso_cli9execution7is_leap
FNDA:20,_RNvXNtCsadPz79N6wDl_11calypso_cli9executionNtB2_15ExecutionConfigNtNtCs3XFJfFEDSOQ_4core7default7Default7default
FNDA:0,_RNvXs_NtCsadPz79N6wDl_11calypso_cli9executionNtB4_14ExecutionErrorNtNtCs3XFJfFEDSOQ_4core3fmt7Display3fmt
FNDA:22,_RNCNvNtCsadPz79N6wDl_11calypso_cli9execution11now_rfc33390B5_
FNDA:9,_RNCNvNtCsadPz79N6wDl_11calypso_cli9execution14finish_session0B5_
FNDA:1,_RNCNvNtCsadPz79N6wDl_11calypso_cli9execution21advance_if_gates_pass0B5_
FNDA:4,_RNCNvNtCsadPz79N6wDl_11calypso_cli9execution21advance_if_gates_passs_0B5_
FNDA:5,_RNvNtNtCsk43tzqYvrEx_11calypso_cli9execution5tests13minimal_state
FNDA:5,_RNvNtNtCsk43tzqYvrEx_11calypso_cli9execution5tests15minimal_feature
FNDA:1,_RNvNtNtCsk43tzqYvrEx_11calypso_cli9execution5testss_31mark_agent_gates_sets_all_gates
FNDA:1,_RNvNtNtCsk43tzqYvrEx_11calypso_cli9execution5testss_36build_prompt_contains_role_and_stage
FNDA:1,_RNvNtNtCsk43tzqYvrEx_11calypso_cli9execution5testss_38finish_session_updates_status_in_place
FNDA:1,_RNvNtNtCsk43tzqYvrEx_11calypso_cli9execution5testss_40now_rfc3339_produces_parseable_timestamp
FNDA:1,_RNvNtNtCsk43tzqYvrEx_11calypso_cli9execution5testss_44forward_facts_enables_all_linear_transitions
FNDA:1,_RNvNtNtCsk43tzqYvrEx_11calypso_cli9execution5testss_50advance_if_gates_pass_advances_from_implementation
FNDA:1,_RNvNtNtCsk43tzqYvrEx_11calypso_cli9execution5testss_54write_transcript_entry_creates_file_with_jsonl_content
FNDA:1,_RNvNtNtCsk43tzqYvrEx_11calypso_cli9execution5testss_57advance_if_gates_pass_does_not_advance_when_failing_gates
FNDA:2,_RNvNtCsk43tzqYvrEx_11calypso_cli9execution11now_rfc3339
FNDA:1,_RNvNtCsk43tzqYvrEx_11calypso_cli9execution12build_prompt
FNDA:3,_RNvNtCsk43tzqYvrEx_11calypso_cli9execution13forward_facts
FNDA:2,_RNvNtCsk43tzqYvrEx_11calypso_cli9execution14epoch_to_parts
FNDA:1,_RNvNtCsk43tzqYvrEx_11calypso_cli9execution14finish_session
FNDA:1,_RNvNtCsk43tzqYvrEx_11calypso_cli9execution16mark_agent_gates
FNDA:2,_RNvNtCsk43tzqYvrEx_11calypso_cli9execution21advance_if_gates_pass
FNDA:1,_RNvNtCsk43tzqYvrEx_11calypso_cli9execution22write_transcript_entry
FNDA:116,_RNvNtCsk43tzqYvrEx_11calypso_cli9execution7is_leap
FNDA:0,_RNvNtCsk43tzqYvrEx_11calypso_cli9execution10invoke_raw
FNDA:0,_RNvNtCsk43tzqYvrEx_11calypso_cli9execution12is_transient
FNDA:0,_RNvNtCsk43tzqYvrEx_11calypso_cli9execution13apply_outcome
FNDA:0,_RNvNtCsk43tzqYvrEx_11calypso_cli9execution17invoke_with_retry
FNDA:0,_RNvNtCsk43tzqYvrEx_11calypso_cli9execution22run_supervised_session
FNDA:0,_RNvXNtCsk43tzqYvrEx_11calypso_cli9executionNtB2_15ExecutionConfigNtNtCs3XFJfFEDSOQ_4core7default7Default7default
FNDA:0,_RNvXs_NtCsk43tzqYvrEx_11calypso_cli9executionNtB4_14ExecutionErrorNtNtCs3XFJfFEDSOQ_4core3fmt7Display3fmt
FNDA:1,_RNCNvNtNtCsk43tzqYvrEx_11calypso_cli9execution5testss_54write_transcript_entry_creates_file_with_jsonl_content0B7_
FNDA:2,_RNCNvNtCsk43tzqYvrEx_11calypso_cli9execution11now_rfc33390B5_
FNDA:1,_RNCNvNtCsk43tzqYvrEx_11calypso_cli9execution14finish_session0B5_
FNDA:1,_RNCNvNtCsk43tzqYvrEx_11calypso_cli9execution21advance_if_gates_pass0B5_
FNDA:1,_RNCNvNtCsk43tzqYvrEx_11calypso_cli9execution21advance_if_gates_passs_0B5_
FNF:31
FNH:29
DA:40,20
DA:41,20
DA:42,20
DA:43,20
DA:44,20
DA:45,20
DA:82,0
DA:83,0
DA:84,0
DA:85,0
DA:86,0
DA:89,0
DA:101,9
DA:102,9
DA:103,9
DA:104,9
DA:105,9
DA:106,9
DA:108,9
DA:109,9
DA:111,9
DA:112,9
DA:114,9
DA:115,9
DA:116,9
DA:117,9
DA:120,9
DA:121,9
DA:122,9
DA:123,9
DA:124,9
DA:125,9
DA:126,9
DA:127,9
DA:128,9
DA:129,9
DA:130,9
DA:131,9
DA:134,9
DA:137,9
DA:139,9
DA:140,0
DA:142,0
DA:143,0
DA:144,0
DA:145,0
DA:146,0
DA:148,0
DA:149,0
DA:150,0
DA:154,0
DA:156,0
DA:158,9
DA:160,9
DA:161,9
DA:162,9
DA:163,9
DA:164,9
DA:165,9
DA:166,9
DA:169,9
DA:170,9
DA:171,9
DA:172,9
DA:173,9
DA:174,9
DA:175,9
DA:176,9
DA:179,9
DA:180,1
DA:181,1
DA:182,1
DA:183,1
DA:184,1
DA:187,1
DA:188,1
DA:189,1
DA:190,1
DA:191,1
DA:192,1
DA:193,1
DA:195,1
DA:196,1
DA:197,1
DA:198,1
DA:199,8
DA:202,8
DA:205,1
DA:206,1
DA:207,1
DA:208,1
DA:209,1
DA:210,1
DA:212,1
DA:213,1
DA:214,1
DA:215,1
DA:216,1
DA:217,1
DA:218,1
DA:219,1
DA:221,7
DA:224,7
DA:227,9
DA:232,10
DA:233,10
DA:234,10
DA:235,10
DA:236,10
DA:237,10
DA:238,10
DA:239,10
DA:240,10
DA:241,10
DA:242,10
DA:243,10
DA:244,10
DA:245,10
DA:248,10
DA:253,10
DA:258,9
DA:259,9
DA:260,9
DA:261,9
DA:262,9
DA:263,9
DA:264,9
DA:266,9
DA:267,9
DA:268,0
DA:269,0
DA:270,0
DA:271,0
DA:272,0
DA:273,0
DA:276,9
DA:280,0
DA:281,0
DA:282,0
DA:286,9
DA:287,9
DA:288,9
DA:289,9
DA:290,9
DA:293,9
DA:294,9
DA:295,9
DA:296,9
DA:297,9
DA:299,9
DA:300,9
DA:301,9
DA:303,9
DA:304,9
DA:305,9
DA:306,9
DA:307,9
DA:311,7
DA:312,7
DA:313,7
DA:314,7
DA:315,7
DA:316,7
DA:317,7
DA:318,7
DA:320,4
DA:321,4
DA:325,4
DA:328,4
DA:329,4
DA:330,4
DA:332,4
DA:333,4
DA:334,4
DA:335,4
DA:336,4
DA:340,4
DA:341,0
DA:342,0
DA:343,0
DA:344,0
DA:345,0
DA:346,0
DA:347,0
DA:348,0
DA:349,0
DA:352,4
DA:353,4
DA:354,4
DA:355,4
DA:357,4
DA:358,4
DA:359,4
DA:360,4
DA:362,4
DA:363,4
DA:364,4
DA:365,4
DA:366,4
DA:369,2
DA:371,2
DA:373,2
DA:374,2
DA:375,2
DA:376,2
DA:377,2
DA:380,2
DA:383,2
DA:384,2
DA:385,2
DA:387,2
DA:390,1
DA:392,1
DA:393,1
DA:394,1
DA:395,1
DA:397,1
DA:398,1
DA:399,1
DA:400,1
DA:401,1
DA:402,1
DA:403,1
DA:404,1
DA:406,1
DA:407,1
DA:408,1
DA:409,1
DA:410,1
DA:413,1
DA:414,1
DA:415,1
DA:416,1
DA:418,1
DA:421,7
DA:427,7
DA:428,10
DA:429,6
DA:430,3
DA:431,3
DA:433,7
DA:436,7
DA:437,7
DA:438,7
DA:439,7
DA:440,7
DA:441,7
DA:442,7
DA:443,7
DA:447,6
DA:448,6
DA:449,6
DA:450,6
DA:451,6
DA:452,6
DA:453,6
DA:454,6
DA:455,6
DA:458,6
DA:460,6
DA:461,1
DA:462,5
DA:464,5
DA:465,5
DA:466,5
DA:467,5
DA:469,5
DA:470,5
DA:471,5
DA:472,5
DA:474,5
DA:475,6
DA:478,10
DA:479,10
DA:480,10
DA:481,10
DA:482,10
DA:483,10
DA:484,10
DA:485,10
DA:486,10
DA:487,10
DA:488,10
DA:489,10
DA:490,10
DA:491,10
DA:492,10
DA:493,10
DA:496,10
DA:497,10
DA:498,10
DA:499,10
DA:500,10
DA:501,10
DA:502,10
DA:505,10
DA:506,10
DA:507,10
DA:508,10
DA:509,10
DA:510,10
DA:513,10
DA:514,10
DA:515,10
DA:516,10
DA:518,10
DA:519,10
DA:521,24
DA:525,24
DA:526,24
DA:527,24
DA:528,24
DA:531,24
DA:532,24
DA:533,24
DA:534,24
DA:536,24
DA:537,24
DA:538,24
DA:539,24
DA:540,24
DA:541,24
DA:542,24
DA:546,24
DA:547,24
DA:549,1368
DA:550,1368
DA:551,24
DA:552,1344
DA:553,1344
DA:554,1344
DA:557,24
DA:559,24
DA:571,24
DA:572,72
DA:573,72
DA:574,24
DA:575,48
DA:576,48
DA:577,48
DA:579,24
DA:581,24
DA:582,24
DA:584,1392
DA:585,1392
DA:586,1392
DA:597,5
DA:598,5
DA:599,5
DA:600,5
DA:601,5
DA:602,5
DA:603,5
DA:604,5
DA:605,5
DA:606,5
DA:607,5
DA:608,5
DA:609,5
DA:610,5
DA:611,5
DA:612,5
DA:613,5
DA:614,5
DA:615,5
DA:616,5
DA:617,5
DA:618,5
DA:620,5
DA:621,5
DA:622,5
DA:623,5
DA:624,5
DA:625,5
DA:626,5
DA:627,5
DA:628,5
DA:629,5
DA:630,5
DA:631,5
DA:634,1
DA:635,1
DA:636,1
DA:637,1
DA:638,1
DA:639,1
DA:640,1
DA:641,1
DA:642,0
DA:644,1
DA:647,1
DA:648,1
DA:649,1
DA:650,1
DA:651,1
DA:652,1
DA:653,1
DA:654,1
DA:655,1
DA:656,1
DA:657,1
DA:658,1
DA:660,1
DA:662,1
DA:663,1
DA:666,1
DA:669,1
DA:670,1
DA:672,1
DA:673,1
DA:674,1
DA:675,1
DA:679,1
DA:682,1
DA:683,1
DA:684,1
DA:685,1
DA:686,1
DA:687,1
DA:688,1
DA:689,1
DA:690,1
DA:691,1
DA:692,1
DA:693,1
DA:694,1
DA:695,1
DA:696,1
DA:697,1
DA:701,1
DA:704,1
DA:705,1
DA:706,1
DA:707,1
DA:708,1
DA:711,1
DA:712,1
DA:713,1
DA:714,1
DA:715,1
DA:716,1
DA:717,1
DA:718,1
DA:719,1
DA:720,1
DA:721,1
DA:723,1
DA:724,1
DA:725,1
DA:726,1
DA:727,1
DA:730,1
DA:731,1
DA:732,1
DA:733,1
DA:736,1
DA:737,1
DA:738,1
DA:739,1
DA:740,1
DA:741,1
DA:742,1
DA:745,1
DA:747,1
DA:748,1
DA:749,1
DA:750,1
DA:751,1
DA:752,1
DA:754,1
DA:755,1
DA:756,1
DA:757,1
DA:758,1
DA:759,1
DA:760,1
DA:762,1
DA:764,1
DA:765,1
DA:766,1
DA:767,1
DA:769,1
DA:770,1
BRF:0
BRH:0
LF:488
LH:452
end_of_record
SF:/home/lucas/calypso/.claude/worktrees/agent-a62ed768/cli/src/feature_start.rs
FN:218,_RINvNtCsadPz79N6wDl_11calypso_cli13feature_start13start_featureNtB2_27HostFeatureStartEnvironmentEB4_
FN:380,_RINvNtCsadPz79N6wDl_11calypso_cli13feature_start22rollback_local_featureNtB2_27HostFeatureStartEnvironmentEB4_
FN:271,_RNCINvNtCsadPz79N6wDl_11calypso_cli13feature_start13start_featureNtB4_27HostFeatureStartEnvironmentE0B6_
FN:275,_RNCINvNtCsadPz79N6wDl_11calypso_cli13feature_start13start_featureNtB4_27HostFeatureStartEnvironmentEs_0B6_
FN:167,_RNCNvXNtCsadPz79N6wDl_11calypso_cli13feature_startNtB4_27HostFeatureStartEnvironmentNtB4_23FeatureStartEnvironment25create_draft_pull_request0B6_
FN:491,_RNvMs0_NtCsadPz79N6wDl_11calypso_cli13feature_startNtB5_17FeatureStartError3git
FN:498,_RNvMs0_NtCsadPz79N6wDl_11calypso_cli13feature_startNtB5_17FeatureStartError6github
FN:405,_RNvNtCsadPz79N6wDl_11calypso_cli13feature_start10git_output
FN:444,_RNvNtCsadPz79N6wDl_11calypso_cli13feature_start11path_string
FN:374,_RNvNtCsadPz79N6wDl_11calypso_cli13feature_start15default_pr_body
FN:370,_RNvNtCsadPz79N6wDl_11calypso_cli13feature_start16default_pr_title
FN:211,_RNvNtCsadPz79N6wDl_11calypso_cli13feature_start17run_feature_start
FN:390,_RNvNtCsadPz79N6wDl_11calypso_cli13feature_start22parse_pull_request_ref
FN:343,_RNvNtCsadPz79N6wDl_11calypso_cli13feature_start26derive_feature_branch_name
FN:427,_RNvNtCsadPz79N6wDl_11calypso_cli13feature_start6run_gh
FN:410,_RNvNtCsadPz79N6wDl_11calypso_cli13feature_start7run_git
FN:115,_RNvXNtCsadPz79N6wDl_11calypso_cli13feature_startNtB2_27HostFeatureStartEnvironmentNtB2_23FeatureStartEnvironment11path_exists
FN:144,_RNvXNtCsadPz79N6wDl_11calypso_cli13feature_startNtB2_27HostFeatureStartEnvironmentNtB2_23FeatureStartEnvironment11push_branch
FN:102,_RNvXNtCsadPz79N6wDl_11calypso_cli13feature_startNtB2_27HostFeatureStartEnvironmentNtB2_23FeatureStartEnvironment13branch_exists
FN:193,_RNvXNtCsadPz79N6wDl_11calypso_cli13feature_startNtB2_27HostFeatureStartEnvironmentNtB2_23FeatureStartEnvironment13remove_branch
FN:86,_RNvXNtCsadPz79N6wDl_11calypso_cli13feature_startNtB2_27HostFeatureStartEnvironmentNtB2_23FeatureStartEnvironment14current_branch
FN:170,_RNvXNtCsadPz79N6wDl_11calypso_cli13feature_startNtB2_27HostFeatureStartEnvironmentNtB2_23FeatureStartEnvironment15bootstrap_state
FN:127,_RNvXNtCsadPz79N6wDl_11calypso_cli13feature_startNtB2_27HostFeatureStartEnvironmentNtB2_23FeatureStartEnvironment15create_worktree
FN:181,_RNvXNtCsadPz79N6wDl_11calypso_cli13feature_startNtB2_27HostFeatureStartEnvironmentNtB2_23FeatureStartEnvironment15remove_worktree
FN:79,_RNvXNtCsadPz79N6wDl_11calypso_cli13feature_startNtB2_27HostFeatureStartEnvironmentNtB2_23FeatureStartEnvironment17resolve_repo_root
FN:94,_RNvXNtCsadPz79N6wDl_11calypso_cli13feature_startNtB2_27HostFeatureStartEnvironmentNtB2_23FeatureStartEnvironment18main_branch_exists
FN:90,_RNvXNtCsadPz79N6wDl_11calypso_cli13feature_startNtB2_27HostFeatureStartEnvironmentNtB2_23FeatureStartEnvironment21is_working_tree_clean
FN:119,_RNvXNtCsadPz79N6wDl_11calypso_cli13feature_startNtB2_27HostFeatureStartEnvironmentNtB2_23FeatureStartEnvironment23create_branch_from_main
FN:197,_RNvXNtCsadPz79N6wDl_11calypso_cli13feature_startNtB2_27HostFeatureStartEnvironmentNtB2_23FeatureStartEnvironment24update_pull_request_body
FN:148,_RNvXNtCsadPz79N6wDl_11calypso_cli13feature_startNtB2_27HostFeatureStartEnvironmentNtB2_23FeatureStartEnvironment25create_draft_pull_request
FN:507,_RNvXs1_NtCsadPz79N6wDl_11calypso_cli13feature_startNtB5_17FeatureStartErrorNtNtCs3XFJfFEDSOQ_4core3fmt7Display3fmt
FN:453,_RNvXs_NtCsadPz79N6wDl_11calypso_cli13feature_startNtB4_25StaticPullRequestResolverNtNtB6_7runtime19PullRequestResolver18resolve_for_branch
FN:218,_RINvNtCsk43tzqYvrEx_11calypso_cli13feature_start13start_featurepEB4_
FN:380,_RINvNtCsk43tzqYvrEx_11calypso_cli13feature_start22rollback_local_featurepEB4_
FN:271,_RNCINvNtCsk43tzqYvrEx_11calypso_cli13feature_start13start_featurepE0B6_
FN:275,_RNCINvNtCsk43tzqYvrEx_11calypso_cli13feature_start13start_featurepEs_0B6_
FN:167,_RNCNvXNtCsk43tzqYvrEx_11calypso_cli13feature_startNtB4_27HostFeatureStartEnvironmentNtB4_23FeatureStartEnvironment25create_draft_pull_request0B6_
FN:491,_RNvMs0_NtCsk43tzqYvrEx_11calypso_cli13feature_startNtB5_17FeatureStartError3git
FN:498,_RNvMs0_NtCsk43tzqYvrEx_11calypso_cli13feature_startNtB5_17FeatureStartError6github
FN:405,_RNvNtCsk43tzqYvrEx_11calypso_cli13feature_start10git_output
FN:444,_RNvNtCsk43tzqYvrEx_11calypso_cli13feature_start11path_string
FN:374,_RNvNtCsk43tzqYvrEx_11calypso_cli13feature_start15default_pr_body
FN:370,_RNvNtCsk43tzqYvrEx_11calypso_cli13feature_start16default_pr_title
FN:211,_RNvNtCsk43tzqYvrEx_11calypso_cli13feature_start17run_feature_start
FN:390,_RNvNtCsk43tzqYvrEx_11calypso_cli13feature_start22parse_pull_request_ref
FN:343,_RNvNtCsk43tzqYvrEx_11calypso_cli13feature_start26derive_feature_branch_name
FN:427,_RNvNtCsk43tzqYvrEx_11calypso_cli13feature_start6run_gh
FN:410,_RNvNtCsk43tzqYvrEx_11calypso_cli13feature_start7run_git
FN:115,_RNvXNtCsk43tzqYvrEx_11calypso_cli13feature_startNtB2_27HostFeatureStartEnvironmentNtB2_23FeatureStartEnvironment11path_exists
FN:144,_RNvXNtCsk43tzqYvrEx_11calypso_cli13feature_startNtB2_27HostFeatureStartEnvironmentNtB2_23FeatureStartEnvironment11push_branch
FN:102,_RNvXNtCsk43tzqYvrEx_11calypso_cli13feature_startNtB2_27HostFeatureStartEnvironmentNtB2_23FeatureStartEnvironment13branch_exists
FN:193,_RNvXNtCsk43tzqYvrEx_11calypso_cli13feature_startNtB2_27HostFeatureStartEnvironmentNtB2_23FeatureStartEnvironment13remove_branch
FN:86,_RNvXNtCsk43tzqYvrEx_11calypso_cli13feature_startNtB2_27HostFeatureStartEnvironmentNtB2_23FeatureStartEnvironment14current_branch
FN:170,_RNvXNtCsk43tzqYvrEx_11calypso_cli13feature_startNtB2_27HostFeatureStartEnvironmentNtB2_23FeatureStartEnvironment15bootstrap_state
FN:127,_RNvXNtCsk43tzqYvrEx_11calypso_cli13feature_startNtB2_27HostFeatureStartEnvironmentNtB2_23FeatureStartEnvironment15create_worktree
FN:181,_RNvXNtCsk43tzqYvrEx_11calypso_cli13feature_startNtB2_27HostFeatureStartEnvironmentNtB2_23FeatureStartEnvironment15remove_worktree
FN:79,_RNvXNtCsk43tzqYvrEx_11calypso_cli13feature_startNtB2_27HostFeatureStartEnvironmentNtB2_23FeatureStartEnvironment17resolve_repo_root
FN:94,_RNvXNtCsk43tzqYvrEx_11calypso_cli13feature_startNtB2_27HostFeatureStartEnvironmentNtB2_23FeatureStartEnvironment18main_branch_exists
FN:90,_RNvXNtCsk43tzqYvrEx_11calypso_cli13feature_startNtB2_27HostFeatureStartEnvironmentNtB2_23FeatureStartEnvironment21is_working_tree_clean
FN:119,_RNvXNtCsk43tzqYvrEx_11calypso_cli13feature_startNtB2_27HostFeatureStartEnvironmentNtB2_23FeatureStartEnvironment23create_branch_from_main
FN:197,_RNvXNtCsk43tzqYvrEx_11calypso_cli13feature_startNtB2_27HostFeatureStartEnvironmentNtB2_23FeatureStartEnvironment24update_pull_request_body
FN:148,_RNvXNtCsk43tzqYvrEx_11calypso_cli13feature_startNtB2_27HostFeatureStartEnvironmentNtB2_23FeatureStartEnvironment25create_draft_pull_request
FN:507,_RNvXs1_NtCsk43tzqYvrEx_11calypso_cli13feature_startNtB5_17FeatureStartErrorNtNtCs3XFJfFEDSOQ_4core3fmt7Display3fmt
FN:453,_RNvXs_NtCsk43tzqYvrEx_11calypso_cli13feature_startNtB4_25StaticPullRequestResolverNtNtB6_7runtime19PullRequestResolver18resolve_for_branch
FN:218,_RINvNtCsadPz79N6wDl_11calypso_cli13feature_start13start_featureNtCsj1Ao0OnaDNz_13feature_start15FakeEnvironmentEB11_
FN:380,_RINvNtCsadPz79N6wDl_11calypso_cli13feature_start22rollback_local_featureNtCsj1Ao0OnaDNz_13feature_start15FakeEnvironmentEB1a_
FN:271,_RNCINvNtCsadPz79N6wDl_11calypso_cli13feature_start13start_featureNtCsj1Ao0OnaDNz_13feature_start15FakeEnvironmentE0B13_
FN:275,_RNCINvNtCsadPz79N6wDl_11calypso_cli13feature_start13start_featureNtCsj1Ao0OnaDNz_13feature_start15FakeEnvironmentEs_0B13_
FNDA:4,_RINvNtCsadPz79N6wDl_11calypso_cli13feature_start13start_featureNtB2_27HostFeatureStartEnvironmentEB4_
FNDA:1,_RINvNtCsadPz79N6wDl_11calypso_cli13feature_start22rollback_local_featureNtB2_27HostFeatureStartEnvironmentEB4_
FNDA:4,_RNCINvNtCsadPz79N6wDl_11calypso_cli13feature_start13start_featureNtB4_27HostFeatureStartEnvironmentE0B6_
FNDA:4,_RNCINvNtCsadPz79N6wDl_11calypso_cli13feature_start13start_featureNtB4_27HostFeatureStartEnvironmentEs_0B6_
FNDA:0,_RNCNvXNtCsadPz79N6wDl_11calypso_cli13feature_startNtB4_27HostFeatureStartEnvironmentNtB4_23FeatureStartEnvironment25create_draft_pull_request0B6_
FNDA:4,_RNvMs0_NtCsadPz79N6wDl_11calypso_cli13feature_startNtB5_17FeatureStartError3git
FNDA:4,_RNvMs0_NtCsadPz79N6wDl_11calypso_cli13feature_startNtB5_17FeatureStartError6github
FNDA:12,_RNvNtCsadPz79N6wDl_11calypso_cli13feature_start10git_output
FNDA:5,_RNvNtCsadPz79N6wDl_11calypso_cli13feature_start11path_string
FNDA:7,_RNvNtCsadPz79N6wDl_11calypso_cli13feature_start15default_pr_body
FNDA:7,_RNvNtCsadPz79N6wDl_11calypso_cli13feature_start16default_pr_title
FNDA:1,_RNvNtCsadPz79N6wDl_11calypso_cli13feature_start17run_feature_start
FNDA:3,_RNvNtCsadPz79N6wDl_11calypso_cli13feature_start22parse_pull_request_ref
FNDA:15,_RNvNtCsadPz79N6wDl_11calypso_cli13feature_start26derive_feature_branch_name
FNDA:10,_RNvNtCsadPz79N6wDl_11calypso_cli13feature_start6run_gh
FNDA:34,_RNvNtCsadPz79N6wDl_11calypso_cli13feature_start7run_git
FNDA:4,_RNvXNtCsadPz79N6wDl_11calypso_cli13feature_startNtB2_27HostFeatureStartEnvironmentNtB2_23FeatureStartEnvironment11path_exists
FNDA:4,_RNvXNtCsadPz79N6wDl_11calypso_cli13feature_startNtB2_27HostFeatureStartEnvironmentNtB2_23FeatureStartEnvironment11push_branch
FNDA:4,_RNvXNtCsadPz79N6wDl_11calypso_cli13feature_startNtB2_27HostFeatureStartEnvironmentNtB2_23FeatureStartEnvironment13branch_exists
FNDA:1,_RNvXNtCsadPz79N6wDl_11calypso_cli13feature_startNtB2_27HostFeatureStartEnvironmentNtB2_23FeatureStartEnvironment13remove_branch
FNDA:4,_RNvXNtCsadPz79N6wDl_11calypso_cli13feature_startNtB2_27HostFeatureStartEnvironmentNtB2_23FeatureStartEnvironment14current_branch
FNDA:3,_RNvXNtCsadPz79N6wDl_11calypso_cli13feature_startNtB2_27HostFeatureStartEnvironmentNtB2_23FeatureStartEnvironment15bootstrap_state
FNDA:4,_RNvXNtCsadPz79N6wDl_11calypso_cli13feature_startNtB2_27HostFeatureStartEnvironmentNtB2_23FeatureStartEnvironment15create_worktree
FNDA:1,_RNvXNtCsadPz79N6wDl_11calypso_cli13feature_startNtB2_27HostFeatureStartEnvironmentNtB2_23FeatureStartEnvironment15remove_worktree
FNDA:4,_RNvXNtCsadPz79N6wDl_11calypso_cli13feature_startNtB2_27HostFeatureStartEnvironmentNtB2_23FeatureStartEnvironment17resolve_repo_root
FNDA:4,_RNvXNtCsadPz79N6wDl_11calypso_cli13feature_startNtB2_27HostFeatureStartEnvironmentNtB2_23FeatureStartEnvironment18main_branch_exists
FNDA:4,_RNvXNtCsadPz79N6wDl_11calypso_cli13feature_startNtB2_27HostFeatureStartEnvironmentNtB2_23FeatureStartEnvironment21is_working_tree_clean
FNDA:4,_RNvXNtCsadPz79N6wDl_11calypso_cli13feature_startNtB2_27HostFeatureStartEnvironmentNtB2_23FeatureStartEnvironment23create_branch_from_main
FNDA:3,_RNvXNtCsadPz79N6wDl_11calypso_cli13feature_startNtB2_27HostFeatureStartEnvironmentNtB2_23FeatureStartEnvironment24update_pull_request_body
FNDA:4,_RNvXNtCsadPz79N6wDl_11calypso_cli13feature_startNtB2_27HostFeatureStartEnvironmentNtB2_23FeatureStartEnvironment25create_draft_pull_request
FNDA:16,_RNvXs1_NtCsadPz79N6wDl_11calypso_cli13feature_startNtB5_17FeatureStartErrorNtNtCs3XFJfFEDSOQ_4core3fmt7Display3fmt
FNDA:3,_RNvXs_NtCsadPz79N6wDl_11calypso_cli13feature_startNtB4_25StaticPullRequestResolverNtNtB6_7runtime19PullRequestResolver18resolve_for_branch
FNDA:0,_RINvNtCsk43tzqYvrEx_11calypso_cli13feature_start13start_featurepEB4_
FNDA:0,_RINvNtCsk43tzqYvrEx_11calypso_cli13feature_start22rollback_local_featurepEB4_
FNDA:0,_RNCINvNtCsk43tzqYvrEx_11calypso_cli13feature_start13start_featurepE0B6_
FNDA:0,_RNCINvNtCsk43tzqYvrEx_11calypso_cli13feature_start13start_featurepEs_0B6_
FNDA:0,_RNCNvXNtCsk43tzqYvrEx_11calypso_cli13feature_startNtB4_27HostFeatureStartEnvironmentNtB4_23FeatureStartEnvironment25create_draft_pull_request0B6_
FNDA:0,_RNvMs0_NtCsk43tzqYvrEx_11calypso_cli13feature_startNtB5_17FeatureStartError3git
FNDA:0,_RNvMs0_NtCsk43tzqYvrEx_11calypso_cli13feature_startNtB5_17FeatureStartError6github
FNDA:0,_RNvNtCsk43tzqYvrEx_11calypso_cli13feature_start10git_output
FNDA:0,_RNvNtCsk43tzqYvrEx_11calypso_cli13feature_start11path_string
FNDA:0,_RNvNtCsk43tzqYvrEx_11calypso_cli13feature_start15default_pr_body
FNDA:0,_RNvNtCsk43tzqYvrEx_11calypso_cli13feature_start16default_pr_title
FNDA:0,_RNvNtCsk43tzqYvrEx_11calypso_cli13feature_start17run_feature_start
FNDA:0,_RNvNtCsk43tzqYvrEx_11calypso_cli13feature_start22parse_pull_request_ref
FNDA:0,_RNvNtCsk43tzqYvrEx_11calypso_cli13feature_start26derive_feature_branch_name
FNDA:0,_RNvNtCsk43tzqYvrEx_11calypso_cli13feature_start6run_gh
FNDA:0,_RNvNtCsk43tzqYvrEx_11calypso_cli13feature_start7run_git
FNDA:0,_RNvXNtCsk43tzqYvrEx_11calypso_cli13feature_startNtB2_27HostFeatureStartEnvironmentNtB2_23FeatureStartEnvironment11path_exists
FNDA:0,_RNvXNtCsk43tzqYvrEx_11calypso_cli13feature_startNtB2_27HostFeatureStartEnvironmentNtB2_23FeatureStartEnvironment11push_branch
FNDA:0,_RNvXNtCsk43tzqYvrEx_11calypso_cli13feature_startNtB2_27HostFeatureStartEnvironmentNtB2_23FeatureStartEnvironment13branch_exists
FNDA:0,_RNvXNtCsk43tzqYvrEx_11calypso_cli13feature_startNtB2_27HostFeatureStartEnvironmentNtB2_23FeatureStartEnvironment13remove_branch
FNDA:0,_RNvXNtCsk43tzqYvrEx_11calypso_cli13feature_startNtB2_27HostFeatureStartEnvironmentNtB2_23FeatureStartEnvironment14current_branch
FNDA:0,_RNvXNtCsk43tzqYvrEx_11calypso_cli13feature_startNtB2_27HostFeatureStartEnvironmentNtB2_23FeatureStartEnvironment15bootstrap_state
FNDA:0,_RNvXNtCsk43tzqYvrEx_11calypso_cli13feature_startNtB2_27HostFeatureStartEnvironmentNtB2_23FeatureStartEnvironment15create_worktree
FNDA:0,_RNvXNtCsk43tzqYvrEx_11calypso_cli13feature_startNtB2_27HostFeatureStartEnvironmentNtB2_23FeatureStartEnvironment15remove_worktree
FNDA:0,_RNvXNtCsk43tzqYvrEx_11calypso_cli13feature_startNtB2_27HostFeatureStartEnvironmentNtB2_23FeatureStartEnvironment17resolve_repo_root
FNDA:0,_RNvXNtCsk43tzqYvrEx_11calypso_cli13feature_startNtB2_27HostFeatureStartEnvironmentNtB2_23FeatureStartEnvironment18main_branch_exists
FNDA:0,_RNvXNtCsk43tzqYvrEx_11calypso_cli13feature_startNtB2_27HostFeatureStartEnvironmentNtB2_23FeatureStartEnvironment21is_working_tree_clean
FNDA:0,_RNvXNtCsk43tzqYvrEx_11calypso_cli13feature_startNtB2_27HostFeatureStartEnvironmentNtB2_23FeatureStartEnvironment23create_branch_from_main
FNDA:0,_RNvXNtCsk43tzqYvrEx_11calypso_cli13feature_startNtB2_27HostFeatureStartEnvironmentNtB2_23FeatureStartEnvironment24update_pull_request_body
FNDA:0,_RNvXNtCsk43tzqYvrEx_11calypso_cli13feature_startNtB2_27HostFeatureStartEnvironmentNtB2_23FeatureStartEnvironment25create_draft_pull_request
FNDA:0,_RNvXs1_NtCsk43tzqYvrEx_11calypso_cli13feature_startNtB5_17FeatureStartErrorNtNtCs3XFJfFEDSOQ_4core3fmt7Display3fmt
FNDA:0,_RNvXs_NtCsk43tzqYvrEx_11calypso_cli13feature_startNtB4_25StaticPullRequestResolverNtNtB6_7runtime19PullRequestResolver18resolve_for_branch
FNDA:11,_RINvNtCsadPz79N6wDl_11calypso_cli13feature_start13start_featureNtCsj1Ao0OnaDNz_13feature_start15FakeEnvironmentEB11_
FNDA:3,_RINvNtCsadPz79N6wDl_11calypso_cli13feature_start22rollback_local_featureNtCsj1Ao0OnaDNz_13feature_start15FakeEnvironmentEB1a_
FNDA:3,_RNCINvNtCsadPz79N6wDl_11calypso_cli13feature_start13start_featureNtCsj1Ao0OnaDNz_13feature_start15FakeEnvironmentE0B13_
FNDA:3,_RNCINvNtCsadPz79N6wDl_11calypso_cli13feature_start13start_featureNtCsj1Ao0OnaDNz_13feature_start15FakeEnvironmentEs_0B13_
FNF:32
FNH:31
DA:79,4
DA:80,4
DA:81,4
DA:82,4
DA:83,4
DA:84,4
DA:86,4
DA:87,4
DA:88,4
DA:90,4
DA:91,4
DA:92,4
DA:94,4
DA:95,4
DA:96,4
DA:97,4
DA:98,4
DA:99,4
DA:100,4
DA:102,4
DA:103,4
DA:104,4
DA:105,4
DA:106,4
DA:107,4
DA:108,4
DA:109,4
DA:110,4
DA:111,4
DA:112,4
DA:113,4
DA:115,4
DA:116,4
DA:117,4
DA:119,4
DA:120,4
DA:121,4
DA:122,4
DA:123,4
DA:124,4
DA:125,4
DA:127,4
DA:128,4
DA:129,4
DA:130,4
DA:131,4
DA:132,4
DA:133,4
DA:134,4
DA:135,0
DA:137,4
DA:138,4
DA:139,4
DA:141,4
DA:142,4
DA:144,4
DA:145,4
DA:146,4
DA:148,4
DA:149,4
DA:150,4
DA:151,4
DA:152,4
DA:153,4
DA:154,4
DA:155,4
DA:156,4
DA:157,4
DA:158,4
DA:159,4
DA:160,4
DA:161,1
DA:163,3
DA:164,3
DA:165,3
DA:166,0
DA:167,3
DA:168,4
DA:170,3
DA:171,3
DA:172,3
DA:173,3
DA:174,3
DA:175,3
DA:176,3
DA:177,3
DA:178,3
DA:179,3
DA:181,1
DA:182,1
DA:183,1
DA:184,1
DA:185,1
DA:186,1
DA:187,1
DA:188,1
DA:190,1
DA:191,1
DA:193,1
DA:194,1
DA:195,1
DA:197,3
DA:198,3
DA:199,3
DA:200,3
DA:201,3
DA:202,3
DA:203,3
DA:204,3
DA:205,3
DA:207,3
DA:208,3
DA:211,1
DA:212,1
DA:213,1
DA:214,1
DA:215,1
DA:216,1
DA:218,15
DA:219,15
DA:220,15
DA:221,15
DA:222,15
DA:223,15
DA:224,15
DA:226,15
DA:227,1
DA:228,14
DA:230,14
DA:231,1
DA:232,1
DA:233,1
DA:234,1
DA:235,13
DA:237,13
DA:238,1
DA:239,12
DA:241,12
DA:242,1
DA:243,11
DA:245,11
DA:246,11
DA:248,11
DA:249,1
DA:250,10
DA:252,10
DA:253,1
DA:254,9
DA:256,9
DA:258,9
DA:259,1
DA:260,1
DA:261,8
DA:263,8
DA:264,1
DA:265,1
DA:266,7
DA:268,7
DA:269,7
DA:270,7
DA:271,7
DA:272,7
DA:273,7
DA:274,7
DA:275,7
DA:277,7
DA:278,7
DA:279,7
DA:280,7
DA:281,7
DA:282,7
DA:283,5
DA:284,2
DA:285,2
DA:286,2
DA:287,2
DA:288,2
DA:289,2
DA:290,2
DA:291,2
DA:292,2
DA:293,2
DA:294,2
DA:295,2
DA:299,5
DA:300,4
DA:301,1
DA:302,1
DA:303,1
DA:304,1
DA:305,1
DA:306,1
DA:307,1
DA:308,1
DA:309,1
DA:310,1
DA:311,1
DA:312,1
DA:313,1
DA:314,1
DA:315,1
DA:316,1
DA:321,4
DA:323,4
DA:324,4
DA:325,3
DA:327,1
DA:330,4
DA:332,4
DA:333,0
DA:335,4
DA:336,4
DA:337,4
DA:338,4
DA:339,4
DA:340,4
DA:341,15
DA:343,15
DA:344,15
DA:345,15
DA:346,1
DA:347,14
DA:349,14
DA:350,14
DA:352,215
DA:353,215
DA:354,185
DA:355,185
DA:356,185
DA:357,27
DA:358,27
DA:359,27
DA:362,14
DA:363,14
DA:364,1
DA:365,13
DA:367,13
DA:368,15
DA:370,7
DA:371,7
DA:372,7
DA:374,7
DA:375,7
DA:376,7
DA:378,7
DA:380,4
DA:381,4
DA:382,4
DA:383,4
DA:384,4
DA:385,4
DA:386,4
DA:387,4
DA:388,4
DA:390,3
DA:397,3
DA:399,3
DA:400,3
DA:401,3
DA:402,3
DA:403,3
DA:405,12
DA:406,12
DA:407,12
DA:408,12
DA:410,34
DA:411,34
DA:412,34
DA:413,34
DA:414,34
DA:415,34
DA:417,34
DA:418,30
DA:420,4
DA:421,4
DA:422,4
DA:423,4
DA:425,34
DA:427,10
DA:428,10
DA:429,10
DA:430,10
DA:431,10
DA:432,10
DA:434,10
DA:435,4
DA:436,4
DA:437,4
DA:438,4
DA:439,6
DA:441,6
DA:442,10
DA:444,5
DA:445,5
DA:446,5
DA:453,3
DA:454,3
DA:455,3
DA:456,3
DA:457,3
DA:458,3
DA:459,3
DA:491,4
DA:492,4
DA:493,4
DA:494,4
DA:495,4
DA:496,4
DA:498,4
DA:499,4
DA:500,4
DA:501,4
DA:502,4
DA:503,4
DA:507,16
DA:508,16
DA:509,1
DA:510,1
DA:511,1
DA:513,1
DA:515,1
DA:516,1
DA:517,1
DA:521,1
DA:524,1
DA:526,1
DA:527,1
DA:528,1
DA:529,1
DA:532,1
DA:533,1
DA:535,1
DA:536,1
DA:538,2
DA:539,2
DA:541,3
DA:542,3
DA:544,2
DA:545,2
DA:546,2
DA:547,1
DA:548,1
DA:549,2
DA:552,16
BRF:0
BRH:0
LF:347
LH:342
end_of_record
SF:/home/lucas/calypso/.claude/worktrees/agent-a62ed768/cli/src/github.rs
FN:72,_RINvNtCsadPz79N6wDl_11calypso_cli6github21collect_github_reportNtB2_21HostGithubEnvironmentEB4_
FN:47,_RNCNvMs_NtCsadPz79N6wDl_11calypso_cli6githubNtB6_12GithubReport19to_builtin_evidence0B8_
FN:19,_RNvMNtCsadPz79N6wDl_11calypso_cli6githubNtB2_13GithubCheckId11builtin_key
FN:44,_RNvMs_NtCsadPz79N6wDl_11calypso_cli6githubNtB4_12GithubReport19to_builtin_evidence
FN:258,_RNvNtCsadPz79N6wDl_11calypso_cli6github18parse_mergeability
FN:211,_RNvNtCsadPz79N6wDl_11calypso_cli6github19parse_checks_status
FN:197,_RNvNtCsadPz79N6wDl_11calypso_cli6github19parse_review_status
FN:87,_RNvNtCsadPz79N6wDl_11calypso_cli6github20checks_from_snapshot
FN:133,_RNvNtCsadPz79N6wDl_11calypso_cli6github24mergeability_to_evidence
FN:125,_RNvNtCsadPz79N6wDl_11calypso_cli6github25review_status_to_evidence
FN:271,_RNvNtCsadPz79N6wDl_11calypso_cli6github27fetch_pull_request_snapshot
FN:178,_RNvNtCsadPz79N6wDl_11calypso_cli6github28parse_pull_request_view_json
FN:286,_RNvNtCsadPz79N6wDl_11calypso_cli6github40fetch_pull_request_snapshot_with_command
FN:64,_RNvXs0_NtCsadPz79N6wDl_11calypso_cli6githubNtB5_21HostGithubEnvironmentNtB5_17GithubEnvironment21pull_request_snapshot
FN:149,_RNvXs1_NtCsadPz79N6wDl_11calypso_cli6githubNtB5_19GithubSnapshotErrorNtNtCs3XFJfFEDSOQ_4core3fmt7Display3fmt
FN:72,_RINvNtCsk43tzqYvrEx_11calypso_cli6github21collect_github_reportNtB2_21HostGithubEnvironmentEB4_
FN:47,_RNCNvMs_NtCsk43tzqYvrEx_11calypso_cli6githubNtB6_12GithubReport19to_builtin_evidence0B8_
FN:310,_RNvNtNtCsk43tzqYvrEx_11calypso_cli6github5tests13make_temp_dir
FN:384,_RNvNtNtCsk43tzqYvrEx_11calypso_cli6github5testss_38gh_pr_view_parser_rejects_invalid_json
FN:406,_RNvNtNtCsk43tzqYvrEx_11calypso_cli6github5testss_55fetch_pull_request_status_uses_gh_command_for_pr_number
FN:389,_RNvNtNtCsk43tzqYvrEx_11calypso_cli6github5testss_58fetch_pull_request_status_parses_successful_command_output
FN:359,_RNvNtNtCsk43tzqYvrEx_11calypso_cli6github5testss_61fetch_pull_request_status_returns_error_for_failed_gh_command
FN:424,_RNvNtNtCsk43tzqYvrEx_11calypso_cli6github5testss_63host_github_environment_reports_missing_pull_request_as_failing
FN:372,_RNvNtNtCsk43tzqYvrEx_11calypso_cli6github5testss_65fetch_pull_request_status_returns_error_when_command_cannot_spawn
FN:19,_RNvMNtCsk43tzqYvrEx_11calypso_cli6githubNtB2_13GithubCheckId11builtin_key
FN:44,_RNvMs_NtCsk43tzqYvrEx_11calypso_cli6githubNtB4_12GithubReport19to_builtin_evidence
FN:258,_RNvNtCsk43tzqYvrEx_11calypso_cli6github18parse_mergeability
FN:211,_RNvNtCsk43tzqYvrEx_11calypso_cli6github19parse_checks_status
FN:197,_RNvNtCsk43tzqYvrEx_11calypso_cli6github19parse_review_status
FN:87,_RNvNtCsk43tzqYvrEx_11calypso_cli6github20checks_from_snapshot
FN:133,_RNvNtCsk43tzqYvrEx_11calypso_cli6github24mergeability_to_evidence
FN:125,_RNvNtCsk43tzqYvrEx_11calypso_cli6github25review_status_to_evidence
FN:271,_RNvNtCsk43tzqYvrEx_11calypso_cli6github27fetch_pull_request_snapshot
FN:178,_RNvNtCsk43tzqYvrEx_11calypso_cli6github28parse_pull_request_view_json
FN:286,_RNvNtCsk43tzqYvrEx_11calypso_cli6github40fetch_pull_request_snapshot_with_command
FN:64,_RNvXs0_NtCsk43tzqYvrEx_11calypso_cli6githubNtB5_21HostGithubEnvironmentNtB5_17GithubEnvironment21pull_request_snapshot
FN:149,_RNvXs1_NtCsk43tzqYvrEx_11calypso_cli6githubNtB5_19GithubSnapshotErrorNtNtCs3XFJfFEDSOQ_4core3fmt7Display3fmt
FN:324,_RINvNtNtCsk43tzqYvrEx_11calypso_cli6github5tests12with_fake_ghNCNvB2_s_55fetch_pull_request_status_uses_gh_command_for_pr_number0EB6_
FN:324,_RINvNtNtCsk43tzqYvrEx_11calypso_cli6github5tests12with_fake_ghNCNvB2_s_63host_github_environment_reports_missing_pull_request_as_failing0EB6_
FN:308,_RNCNvNtNtCsk43tzqYvrEx_11calypso_cli6github5tests9PATH_LOCK0B7_
FN:409,_RNCNvNtNtCsk43tzqYvrEx_11calypso_cli6github5testss_55fetch_pull_request_status_uses_gh_command_for_pr_number0B7_
FN:425,_RNCNvNtNtCsk43tzqYvrEx_11calypso_cli6github5testss_63host_github_environment_reports_missing_pull_request_as_failing0B7_
FN:72,_RINvNtCsadPz79N6wDl_11calypso_cli6github21collect_github_reportNtCsgiVapiFJCK8_6github21FakeGithubEnvironmentEB11_
FNDA:1,_RINvNtCsadPz79N6wDl_11calypso_cli6github21collect_github_reportNtB2_21HostGithubEnvironmentEB4_
FNDA:11,_RNCNvMs_NtCsadPz79N6wDl_11calypso_cli6githubNtB6_12GithubReport19to_builtin_evidence0B8_
FNDA:11,_RNvMNtCsadPz79N6wDl_11calypso_cli6githubNtB2_13GithubCheckId11builtin_key
FNDA:3,_RNvMs_NtCsadPz79N6wDl_11calypso_cli6githubNtB4_12GithubReport19to_builtin_evidence
FNDA:5,_RNvNtCsadPz79N6wDl_11calypso_cli6github18parse_mergeability
FNDA:8,_RNvNtCsadPz79N6wDl_11calypso_cli6github19parse_checks_status
FNDA:10,_RNvNtCsadPz79N6wDl_11calypso_cli6github19parse_review_status
FNDA:5,_RNvNtCsadPz79N6wDl_11calypso_cli6github20checks_from_snapshot
FNDA:3,_RNvNtCsadPz79N6wDl_11calypso_cli6github24mergeability_to_evidence
FNDA:3,_RNvNtCsadPz79N6wDl_11calypso_cli6github25review_status_to_evidence
FNDA:1,_RNvNtCsadPz79N6wDl_11calypso_cli6github27fetch_pull_request_snapshot
FNDA:12,_RNvNtCsadPz79N6wDl_11calypso_cli6github28parse_pull_request_view_json
FNDA:1,_RNvNtCsadPz79N6wDl_11calypso_cli6github40fetch_pull_request_snapshot_with_command
FNDA:1,_RNvXs0_NtCsadPz79N6wDl_11calypso_cli6githubNtB5_21HostGithubEnvironmentNtB5_17GithubEnvironment21pull_request_snapshot
FNDA:10,_RNvXs1_NtCsadPz79N6wDl_11calypso_cli6githubNtB5_19GithubSnapshotErrorNtNtCs3XFJfFEDSOQ_4core3fmt7Display3fmt
FNDA:0,_RINvNtCsk43tzqYvrEx_11calypso_cli6github21collect_github_reportNtB2_21HostGithubEnvironmentEB4_
FNDA:0,_RNCNvMs_NtCsk43tzqYvrEx_11calypso_cli6githubNtB6_12GithubReport19to_builtin_evidence0B8_
FNDA:2,_RNvNtNtCsk43tzqYvrEx_11calypso_cli6github5tests13make_temp_dir
FNDA:1,_RNvNtNtCsk43tzqYvrEx_11calypso_cli6github5testss_38gh_pr_view_parser_rejects_invalid_json
FNDA:1,_RNvNtNtCsk43tzqYvrEx_11calypso_cli6github5testss_55fetch_pull_request_status_uses_gh_command_for_pr_number
FNDA:1,_RNvNtNtCsk43tzqYvrEx_11calypso_cli6github5testss_58fetch_pull_request_status_parses_successful_command_output
FNDA:1,_RNvNtNtCsk43tzqYvrEx_11calypso_cli6github5testss_61fetch_pull_request_status_returns_error_for_failed_gh_command
FNDA:1,_RNvNtNtCsk43tzqYvrEx_11calypso_cli6github5testss_63host_github_environment_reports_missing_pull_request_as_failing
FNDA:1,_RNvNtNtCsk43tzqYvrEx_11calypso_cli6github5testss_65fetch_pull_request_status_returns_error_when_command_cannot_spawn
FNDA:0,_RNvMNtCsk43tzqYvrEx_11calypso_cli6githubNtB2_13GithubCheckId11builtin_key
FNDA:0,_RNvMs_NtCsk43tzqYvrEx_11calypso_cli6githubNtB4_12GithubReport19to_builtin_evidence
FNDA:2,_RNvNtCsk43tzqYvrEx_11calypso_cli6github18parse_mergeability
FNDA:2,_RNvNtCsk43tzqYvrEx_11calypso_cli6github19parse_checks_status
FNDA:2,_RNvNtCsk43tzqYvrEx_11calypso_cli6github19parse_review_status
FNDA:0,_RNvNtCsk43tzqYvrEx_11calypso_cli6github20checks_from_snapshot
FNDA:0,_RNvNtCsk43tzqYvrEx_11calypso_cli6github24mergeability_to_evidence
FNDA:0,_RNvNtCsk43tzqYvrEx_11calypso_cli6github25review_status_to_evidence
FNDA:2,_RNvNtCsk43tzqYvrEx_11calypso_cli6github27fetch_pull_request_snapshot
FNDA:3,_RNvNtCsk43tzqYvrEx_11calypso_cli6github28parse_pull_request_view_json
FNDA:5,_RNvNtCsk43tzqYvrEx_11calypso_cli6github40fetch_pull_request_snapshot_with_command
FNDA:1,_RNvXs0_NtCsk43tzqYvrEx_11calypso_cli6githubNtB5_21HostGithubEnvironmentNtB5_17GithubEnvironment21pull_request_snapshot
FNDA:3,_RNvXs1_NtCsk43tzqYvrEx_11calypso_cli6githubNtB5_19GithubSnapshotErrorNtNtCs3XFJfFEDSOQ_4core3fmt7Display3fmt
FNDA:1,_RINvNtNtCsk43tzqYvrEx_11calypso_cli6github5tests12with_fake_ghNCNvB2_s_55fetch_pull_request_status_uses_gh_command_for_pr_number0EB6_
FNDA:1,_RINvNtNtCsk43tzqYvrEx_11calypso_cli6github5tests12with_fake_ghNCNvB2_s_63host_github_environment_reports_missing_pull_request_as_failing0EB6_
FNDA:1,_RNCNvNtNtCsk43tzqYvrEx_11calypso_cli6github5tests9PATH_LOCK0B7_
FNDA:1,_RNCNvNtNtCsk43tzqYvrEx_11calypso_cli6github5testss_55fetch_pull_request_status_uses_gh_command_for_pr_number0B7_
FNDA:1,_RNCNvNtNtCsk43tzqYvrEx_11calypso_cli6github5testss_63host_github_environment_reports_missing_pull_request_as_failing0B7_
FNDA:4,_RINvNtCsadPz79N6wDl_11calypso_cli6github21collect_github_reportNtCsgiVapiFJCK8_6github21FakeGithubEnvironmentEB11_
FNF:26
FNH:26
DA:19,11
DA:20,11
DA:21,3
DA:22,2
DA:23,2
DA:24,2
DA:25,2
DA:27,11
DA:44,3
DA:45,3
DA:46,3
DA:47,11
DA:48,11
DA:49,11
DA:50,3
DA:64,2
DA:65,2
DA:66,2
DA:67,2
DA:68,2
DA:69,2
DA:72,5
DA:73,5
DA:74,5
DA:75,5
DA:76,5
DA:77,3
DA:78,2
DA:80,5
DA:81,5
DA:82,5
DA:83,5
DA:84,5
DA:85,5
DA:87,5
DA:88,5
DA:89,5
DA:90,5
DA:91,3
DA:93,2
DA:97,5
DA:98,3
DA:100,3
DA:101,3
DA:102,1
DA:104,2
DA:107,3
DA:108,3
DA:109,3
DA:110,3
DA:111,3
DA:112,3
DA:113,3
DA:114,3
DA:115,3
DA:116,3
DA:117,3
DA:118,3
DA:120,2
DA:122,5
DA:123,5
DA:125,3
DA:126,3
DA:127,1
DA:128,1
DA:129,1
DA:131,3
DA:133,3
DA:134,3
DA:135,1
DA:136,1
DA:137,1
DA:139,3
DA:149,13
DA:150,13
DA:151,1
DA:152,6
DA:153,6
DA:154,6
DA:157,13
DA:178,15
DA:179,15
DA:180,15
DA:181,15
DA:182,13
DA:183,1
DA:184,1
DA:185,1
DA:186,1
DA:187,12
DA:190,12
DA:191,12
DA:192,10
DA:193,7
DA:195,15
DA:197,12
DA:198,12
DA:199,12
DA:200,12
DA:201,12
DA:202,4
DA:203,3
DA:204,2
DA:205,2
DA:206,2
DA:207,2
DA:209,12
DA:211,10
DA:212,10
DA:213,3
DA:214,7
DA:216,7
DA:217,11
DA:218,8
DA:219,8
DA:220,8
DA:221,8
DA:222,8
DA:223,8
DA:225,7
DA:226,7
DA:227,1
DA:228,1
DA:229,6
DA:230,4
DA:231,5
DA:232,5
DA:233,5
DA:234,5
DA:235,5
DA:236,5
DA:238,4
DA:239,1
DA:240,3
DA:242,1
DA:243,1
DA:244,1
DA:245,1
DA:246,1
DA:251,3
DA:252,1
DA:254,2
DA:256,10
DA:258,7
DA:259,7
DA:260,7
DA:261,4
DA:262,3
DA:263,2
DA:264,1
DA:265,1
DA:266,1
DA:267,1
DA:269,7
DA:271,3
DA:272,3
DA:273,3
DA:274,3
DA:275,3
DA:276,3
DA:277,3
DA:278,3
DA:279,3
DA:280,3
DA:281,3
DA:283,3
DA:284,3
DA:286,6
DA:287,6
DA:288,6
DA:289,6
DA:290,6
DA:291,6
DA:293,5
DA:294,2
DA:295,2
DA:296,2
DA:297,3
DA:299,3
DA:300,6
DA:308,1
DA:310,2
DA:311,2
DA:312,2
DA:313,2
DA:314,2
DA:315,2
DA:316,2
DA:317,2
DA:319,2
DA:320,2
DA:321,2
DA:322,2
DA:324,2
DA:325,2
DA:326,2
DA:327,2
DA:328,2
DA:329,2
DA:333,2
DA:334,2
DA:335,2
DA:336,2
DA:337,2
DA:340,2
DA:341,2
DA:342,2
DA:343,2
DA:344,2
DA:346,2
DA:347,2
DA:348,2
DA:350,2
DA:352,2
DA:353,2
DA:354,2
DA:355,2
DA:356,2
DA:359,1
DA:360,1
DA:361,1
DA:363,1
DA:364,1
DA:365,1
DA:366,1
DA:367,1
DA:369,1
DA:372,1
DA:373,1
DA:375,1
DA:376,1
DA:377,1
DA:378,1
DA:379,1
DA:381,1
DA:384,1
DA:385,1
DA:386,1
DA:389,1
DA:390,1
DA:391,1
DA:392,1
DA:393,1
DA:394,1
DA:396,1
DA:397,1
DA:399,1
DA:400,1
DA:401,1
DA:402,1
DA:403,1
DA:406,1
DA:407,1
DA:408,1
DA:409,1
DA:410,1
DA:411,1
DA:412,1
DA:413,1
DA:414,1
DA:416,1
DA:417,1
DA:418,1
DA:419,1
DA:421,1
DA:424,1
DA:425,1
DA:426,1
DA:427,1
DA:428,1
DA:429,1
DA:430,1
DA:432,1
DA:433,1
DA:434,1
DA:435,1
DA:436,1
DA:437,1
DA:439,1
DA:440,1
BRF:0
BRH:0
LF:282
LH:282
end_of_record
SF:/home/lucas/calypso/.claude/worktrees/agent-a62ed768/cli/src/headless.rs
FN:40,_RNvNtCsadPz79N6wDl_11calypso_cli8headless12run_headless
FN:168,_RNvNtCsadPz79N6wDl_11calypso_cli8headless18log_doctor_results
FN:249,_RNvNtCsadPz79N6wDl_11calypso_cli8headless22evaluate_and_log_gates
FN:216,_RNvNtCsadPz79N6wDl_11calypso_cli8headless23evaluate_gates_headless
FN:46,_RNvNtCsadPz79N6wDl_11calypso_cli8headless24run_headless_with_logger
FN:319,_RNCNvNtCsadPz79N6wDl_11calypso_cli8headless22evaluate_and_log_gates0B5_
FN:349,_RNvMNtNtCsk43tzqYvrEx_11calypso_cli8headless5testsNtB2_13CaptureWriter3new
FN:355,_RNvMNtNtCsk43tzqYvrEx_11calypso_cli8headless5testsNtB2_13CaptureWriter8contents
FN:372,_RNvNtNtCsk43tzqYvrEx_11calypso_cli8headless5tests11make_logger
FN:527,_RNvNtNtCsk43tzqYvrEx_11calypso_cli8headless5tests13phony_feature
FN:518,_RNvNtNtCsk43tzqYvrEx_11calypso_cli8headless5tests14phony_template
FN:447,_RNvNtNtCsk43tzqYvrEx_11calypso_cli8headless5testss_27headless_logs_startup_event
FN:378,_RNvNtNtCsk43tzqYvrEx_11calypso_cli8headless5testss_30log_doctor_results_all_passing
FN:571,_RNvNtNtCsk43tzqYvrEx_11calypso_cli8headless5testss_34evaluate_and_log_gates_all_passing
FN:713,_RNvNtNtCsk43tzqYvrEx_11calypso_cli8headless5testss_34headless_config_debug_and_equality
FN:476,_RNvNtNtCsk43tzqYvrEx_11calypso_cli8headless5testss_34headless_env_override_emits_notice
FN:705,_RNvNtNtCsk43tzqYvrEx_11calypso_cli8headless5testss_35headless_outcome_debug_and_equality
FN:606,_RNvNtNtCsk43tzqYvrEx_11calypso_cli8headless5testss_38evaluate_and_log_gates_logs_state_name
FN:500,_RNvNtNtCsk43tzqYvrEx_11calypso_cli8headless5testss_41log_doctor_results_empty_report_returns_0
FN:413,_RNvNtNtCsk43tzqYvrEx_11calypso_cli8headless5testss_41log_doctor_results_with_failure_returns_1
FN:657,_RNvNtNtCsk43tzqYvrEx_11calypso_cli8headless5testss_42evaluate_and_log_gates_with_mixed_statuses
FN:623,_RNvNtNtCsk43tzqYvrEx_11calypso_cli8headless5testss_45evaluate_and_log_gates_unknown_task_returns_1
FN:543,_RNvNtNtCsk43tzqYvrEx_11calypso_cli8headless5testss_51evaluate_and_log_gates_all_pending_reports_blocking
FN:687,_RNvNtNtCsk43tzqYvrEx_11calypso_cli8headless5testss_57evaluate_and_log_gates_blocking_summary_includes_gate_ids
FN:367,_RNvXs_NtNtCsk43tzqYvrEx_11calypso_cli8headless5testsNtB4_13CaptureWriterNtNtCsHIej2QEFI5_3std2io5Write5flush
FN:362,_RNvXs_NtNtCsk43tzqYvrEx_11calypso_cli8headless5testsNtB4_13CaptureWriterNtNtCsHIej2QEFI5_3std2io5Write5write
FN:168,_RNvNtCsk43tzqYvrEx_11calypso_cli8headless18log_doctor_results
FN:249,_RNvNtCsk43tzqYvrEx_11calypso_cli8headless22evaluate_and_log_gates
FN:216,_RNvNtCsk43tzqYvrEx_11calypso_cli8headless23evaluate_gates_headless
FN:46,_RNvNtCsk43tzqYvrEx_11calypso_cli8headless24run_headless_with_logger
FN:40,_RNvNtCsk43tzqYvrEx_11calypso_cli8headless12run_headless
FN:319,_RNCNvNtCsk43tzqYvrEx_11calypso_cli8headless22evaluate_and_log_gates0B5_
FNDA:0,_RNvNtCsadPz79N6wDl_11calypso_cli8headless12run_headless
FNDA:0,_RNvNtCsadPz79N6wDl_11calypso_cli8headless18log_doctor_results
FNDA:0,_RNvNtCsadPz79N6wDl_11calypso_cli8headless22evaluate_and_log_gates
FNDA:0,_RNvNtCsadPz79N6wDl_11calypso_cli8headless23evaluate_gates_headless
FNDA:0,_RNvNtCsadPz79N6wDl_11calypso_cli8headless24run_headless_with_logger
FNDA:0,_RNCNvNtCsadPz79N6wDl_11calypso_cli8headless22evaluate_and_log_gates0B5_
FNDA:11,_RNvMNtNtCsk43tzqYvrEx_11calypso_cli8headless5testsNtB2_13CaptureWriter3new
FNDA:11,_RNvMNtNtCsk43tzqYvrEx_11calypso_cli8headless5testsNtB2_13CaptureWriter8contents
FNDA:11,_RNvNtNtCsk43tzqYvrEx_11calypso_cli8headless5tests11make_logger
FNDA:7,_RNvNtNtCsk43tzqYvrEx_11calypso_cli8headless5tests13phony_feature
FNDA:13,_RNvNtNtCsk43tzqYvrEx_11calypso_cli8headless5tests14phony_template
FNDA:1,_RNvNtNtCsk43tzqYvrEx_11calypso_cli8headless5testss_27headless_logs_startup_event
FNDA:1,_RNvNtNtCsk43tzqYvrEx_11calypso_cli8headless5testss_30log_doctor_results_all_passing
FNDA:1,_RNvNtNtCsk43tzqYvrEx_11calypso_cli8headless5testss_34evaluate_and_log_gates_all_passing
FNDA:1,_RNvNtNtCsk43tzqYvrEx_11calypso_cli8headless5testss_34headless_config_debug_and_equality
FNDA:1,_RNvNtNtCsk43tzqYvrEx_11calypso_cli8headless5testss_34headless_env_override_emits_notice
FNDA:1,_RNvNtNtCsk43tzqYvrEx_11calypso_cli8headless5testss_35headless_outcome_debug_and_equality
FNDA:1,_RNvNtNtCsk43tzqYvrEx_11calypso_cli8headless5testss_38evaluate_and_log_gates_logs_state_name
FNDA:1,_RNvNtNtCsk43tzqYvrEx_11calypso_cli8headless5testss_41log_doctor_results_empty_report_returns_0
FNDA:1,_RNvNtNtCsk43tzqYvrEx_11calypso_cli8headless5testss_41log_doctor_results_with_failure_returns_1
FNDA:1,_RNvNtNtCsk43tzqYvrEx_11calypso_cli8headless5testss_42evaluate_and_log_gates_with_mixed_statuses
FNDA:1,_RNvNtNtCsk43tzqYvrEx_11calypso_cli8headless5testss_45evaluate_and_log_gates_unknown_task_returns_1
FNDA:1,_RNvNtNtCsk43tzqYvrEx_11calypso_cli8headless5testss_51evaluate_and_log_gates_all_pending_reports_blocking
FNDA:1,_RNvNtNtCsk43tzqYvrEx_11calypso_cli8headless5testss_57evaluate_and_log_gates_blocking_summary_includes_gate_ids
FNDA:0,_RNvXs_NtNtCsk43tzqYvrEx_11calypso_cli8headless5testsNtB4_13CaptureWriterNtNtCsHIej2QEFI5_3std2io5Write5flush
FNDA:32,_RNvXs_NtNtCsk43tzqYvrEx_11calypso_cli8headless5testsNtB4_13CaptureWriterNtNtCsHIej2QEFI5_3std2io5Write5write
FNDA:3,_RNvNtCsk43tzqYvrEx_11calypso_cli8headless18log_doctor_results
FNDA:6,_RNvNtCsk43tzqYvrEx_11calypso_cli8headless22evaluate_and_log_gates
FNDA:0,_RNvNtCsk43tzqYvrEx_11calypso_cli8headless23evaluate_gates_headless
FNDA:2,_RNvNtCsk43tzqYvrEx_11calypso_cli8headless24run_headless_with_logger
FNDA:0,_RNvNtCsk43tzqYvrEx_11calypso_cli8headless12run_headless
FNDA:12,_RNCNvNtCsk43tzqYvrEx_11calypso_cli8headless22evaluate_and_log_gates0B5_
FNF:26
FNH:23
DA:40,0
DA:41,0
DA:42,0
DA:43,0
DA:46,2
DA:48,2
DA:49,1
DA:50,1
DA:53,2
DA:54,2
DA:55,2
DA:56,2
DA:57,2
DA:58,2
DA:62,2
DA:65,2
DA:66,0
DA:68,2
DA:69,2
DA:70,2
DA:71,2
DA:72,2
DA:73,2
DA:75,2
DA:80,0
DA:81,0
DA:82,0
DA:83,0
DA:84,0
DA:85,0
DA:88,0
DA:89,0
DA:91,0
DA:92,0
DA:93,0
DA:94,0
DA:95,0
DA:96,0
DA:97,0
DA:99,0
DA:100,0
DA:103,0
DA:104,0
DA:105,0
DA:106,0
DA:107,0
DA:108,0
DA:109,0
DA:111,0
DA:112,0
DA:115,0
DA:117,0
DA:118,0
DA:119,0
DA:120,0
DA:121,0
DA:122,0
DA:123,0
DA:124,0
DA:126,0
DA:127,0
DA:128,0
DA:130,0
DA:131,0
DA:132,0
DA:133,0
DA:134,0
DA:135,0
DA:136,0
DA:141,0
DA:142,0
DA:143,0
DA:144,0
DA:145,0
DA:146,0
DA:147,0
DA:149,0
DA:150,0
DA:153,0
DA:156,0
DA:157,0
DA:158,0
DA:159,0
DA:160,0
DA:161,0
DA:164,0
DA:165,2
DA:168,3
DA:169,3
DA:171,7
DA:172,4
DA:173,3
DA:174,1
DA:177,4
DA:178,4
DA:179,4
DA:180,4
DA:182,4
DA:183,4
DA:184,4
DA:186,4
DA:187,2
DA:188,2
DA:189,2
DA:190,2
DA:191,2
DA:193,4
DA:194,3
DA:195,1
DA:198,4
DA:199,4
DA:200,4
DA:201,4
DA:202,4
DA:203,4
DA:206,4
DA:207,1
DA:208,3
DA:211,3
DA:212,3
DA:216,0
DA:217,0
DA:218,0
DA:219,0
DA:220,0
DA:221,0
DA:222,0
DA:223,0
DA:224,0
DA:225,0
DA:230,0
DA:233,0
DA:234,0
DA:236,0
DA:237,0
DA:239,0
DA:241,0
DA:242,0
DA:243,0
DA:245,0
DA:246,0
DA:249,6
DA:250,6
DA:251,6
DA:252,6
DA:253,6
DA:254,6
DA:255,6
DA:256,1
DA:257,1
DA:258,1
DA:259,1
DA:260,1
DA:261,1
DA:262,5
DA:265,5
DA:266,5
DA:267,5
DA:268,5
DA:269,5
DA:270,5
DA:271,5
DA:272,5
DA:273,5
DA:276,17
DA:277,24
DA:278,12
DA:279,12
DA:280,12
DA:281,12
DA:282,12
DA:283,12
DA:284,12
DA:285,12
DA:286,12
DA:287,12
DA:288,12
DA:289,12
DA:290,12
DA:291,12
DA:292,12
DA:293,12
DA:294,12
DA:295,12
DA:296,12
DA:297,12
DA:298,12
DA:299,12
DA:303,5
DA:304,5
DA:305,1
DA:306,1
DA:307,1
DA:308,1
DA:309,1
DA:310,1
DA:311,1
DA:312,1
DA:313,4
DA:314,4
DA:315,4
DA:317,4
DA:318,4
DA:319,12
DA:320,4
DA:323,4
DA:325,4
DA:326,4
DA:327,4
DA:328,4
DA:329,4
DA:330,4
DA:334,5
DA:335,6
DA:349,11
DA:350,11
DA:351,11
DA:352,11
DA:353,11
DA:355,11
DA:356,11
DA:357,11
DA:358,11
DA:362,32
DA:363,32
DA:364,32
DA:365,32
DA:367,0
DA:368,0
DA:369,0
DA:372,11
DA:373,11
DA:374,11
DA:375,11
DA:378,1
DA:379,1
DA:380,1
DA:382,1
DA:383,1
DA:384,1
DA:385,1
DA:386,1
DA:387,1
DA:388,1
DA:389,1
DA:390,1
DA:391,1
DA:392,1
DA:393,1
DA:394,1
DA:395,1
DA:396,1
DA:397,1
DA:398,1
DA:399,1
DA:400,1
DA:401,1
DA:403,1
DA:404,1
DA:406,1
DA:407,1
DA:408,1
DA:409,1
DA:410,1
DA:413,1
DA:414,1
DA:415,1
DA:417,1
DA:418,1
DA:419,1
DA:420,1
DA:421,1
DA:422,1
DA:423,1
DA:424,1
DA:425,1
DA:426,1
DA:427,1
DA:428,1
DA:429,1
DA:430,1
DA:431,1
DA:432,1
DA:433,1
DA:434,1
DA:435,1
DA:436,1
DA:438,1
DA:439,1
DA:441,1
DA:442,1
DA:443,1
DA:444,1
DA:447,1
DA:448,1
DA:449,1
DA:451,1
DA:452,1
DA:453,1
DA:454,1
DA:455,1
DA:459,1
DA:460,1
DA:462,1
DA:463,1
DA:466,1
DA:467,1
DA:468,1
DA:469,0
DA:472,1
DA:473,1
DA:476,1
DA:477,1
DA:478,1
DA:480,1
DA:481,1
DA:482,1
DA:483,1
DA:484,1
DA:486,1
DA:487,1
DA:489,1
DA:490,1
DA:492,1
DA:493,1
DA:494,1
DA:495,0
DA:497,1
DA:500,1
DA:501,1
DA:502,1
DA:504,1
DA:506,1
DA:507,1
DA:510,1
DA:511,1
DA:512,1
DA:513,0
DA:515,1
DA:518,13
DA:519,13
DA:520,13
DA:521,13
DA:522,13
DA:523,13
DA:524,13
DA:527,7
DA:528,7
DA:529,7
DA:530,7
DA:531,7
DA:532,7
DA:533,7
DA:534,7
DA:535,7
DA:536,7
DA:537,7
DA:539,7
DA:540,7
DA:543,1
DA:544,1
DA:545,1
DA:546,1
DA:547,1
DA:548,1
DA:550,1
DA:551,1
DA:553,1
DA:555,1
DA:556,1
DA:557,0
DA:559,1
DA:560,1
DA:561,0
DA:564,1
DA:565,1
DA:566,0
DA:568,1
DA:571,1
DA:572,1
DA:573,1
DA:574,1
DA:575,1
DA:578,4
DA:579,6
DA:580,3
DA:581,3
DA:591,1
DA:592,1
DA:594,1
DA:595,1
DA:596,1
DA:598,1
DA:599,1
DA:600,1
DA:601,0
DA:603,1
DA:606,1
DA:607,1
DA:608,1
DA:609,1
DA:610,1
DA:611,1
DA:613,1
DA:615,1
DA:616,1
DA:617,1
DA:618,0
DA:620,1
DA:623,1
DA:624,1
DA:625,1
DA:626,1
DA:629,1
DA:630,1
DA:631,1
DA:632,1
DA:633,1
DA:634,1
DA:635,1
DA:636,1
DA:637,1
DA:638,1
DA:639,1
DA:641,1
DA:642,1
DA:643,1
DA:645,1
DA:646,1
DA:647,1
DA:648,0
DA:650,1
DA:651,1
DA:652,0
DA:654,1
DA:657,1
DA:658,1
DA:659,1
DA:660,1
DA:661,1
DA:664,1
DA:665,1
DA:666,1
DA:667,1
DA:668,1
DA:670,1
DA:671,1
DA:672,1
DA:674,1
DA:676,1
DA:677,1
DA:678,0
DA:680,1
DA:681,1
DA:682,0
DA:684,1
DA:687,1
DA:688,1
DA:689,1
DA:690,1
DA:691,1
DA:692,1
DA:694,1
DA:696,1
DA:698,1
DA:699,1
DA:700,0
DA:702,1
DA:705,1
DA:706,1
DA:707,1
DA:708,1
DA:709,1
DA:710,1
DA:713,1
DA:714,1
DA:715,1
DA:716,1
DA:717,1
DA:718,1
DA:719,1
DA:720,1
DA:721,1
DA:722,1
DA:723,1
BRF:0
BRH:0
LF:486
LH:382
end_of_record
SF:/home/lucas/calypso/.claude/worktrees/agent-a62ed768/cli/src/init.rs
FN:552,_RINvNtCsadPz79N6wDl_11calypso_cli4init20run_init_interactiveNtB2_19HostInitEnvironmentECsiwaishIGMxq_11calypso_cli
FN:606,_RINvNtCsadPz79N6wDl_11calypso_cli4init23scaffold_github_actionsNtB2_19HostInitEnvironmentECsiwaishIGMxq_11calypso_cli
FN:681,_RINvNtCsadPz79N6wDl_11calypso_cli4init13do_init_stepsNtB2_19HostInitEnvironmentEB4_
FN:627,_RINvNtCsadPz79N6wDl_11calypso_cli4init15init_repositoryNtB2_19HostInitEnvironmentEB4_
FN:650,_RNCINvNtCsadPz79N6wDl_11calypso_cli4init15init_repositoryNtB4_19HostInitEnvironmentE0B6_
FN:514,_RNCNvNtCsadPz79N6wDl_11calypso_cli4init13is_github_url0B5_
FN:62,_RNvMNtCsadPz79N6wDl_11calypso_cli4initNtB2_8InitStep11is_complete
FN:49,_RNvMNtCsadPz79N6wDl_11calypso_cli4initNtB2_8InitStep4next
FN:35,_RNvMNtCsadPz79N6wDl_11calypso_cli4initNtB2_8InitStep6as_str
FN:107,_RNvMs0_NtCsadPz79N6wDl_11calypso_cli4initNtB5_12InitProgress12is_step_done
FN:87,_RNvMs0_NtCsadPz79N6wDl_11calypso_cli4initNtB5_12InitProgress3new
FN:99,_RNvMs0_NtCsadPz79N6wDl_11calypso_cli4initNtB5_12InitProgress7advance
FN:246,_RNvMs1_NtCsadPz79N6wDl_11calypso_cli4initNtB5_9InitError3git
FN:506,_RNvNtCsadPz79N6wDl_11calypso_cli4init13is_github_url
FN:479,_RNvNtCsadPz79N6wDl_11calypso_cli4init17extract_repo_name
FN:749,_RNvNtCsadPz79N6wDl_11calypso_cli4init21default_feature_state
FN:542,_RNvNtCsadPz79N6wDl_11calypso_cli4init8run_init
FN:255,_RNvXs2_NtCsadPz79N6wDl_11calypso_cli4initNtB5_9InitErrorNtNtCs3XFJfFEDSOQ_4core3fmt7Display3fmt
FN:367,_RNvXs4_NtCsadPz79N6wDl_11calypso_cli4initNtB5_19HostInitEnvironmentNtB5_15InitEnvironment10create_dir
FN:326,_RNvXs4_NtCsadPz79N6wDl_11calypso_cli4initNtB5_19HostInitEnvironmentNtB5_15InitEnvironment10remote_url
FN:420,_RNvXs4_NtCsadPz79N6wDl_11calypso_cli4initNtB5_19HostInitEnvironmentNtB5_15InitEnvironment10set_remote
FN:371,_RNvXs4_NtCsadPz79N6wDl_11calypso_cli4initNtB5_19HostInitEnvironmentNtB5_15InitEnvironment10write_file
FN:318,_RNvXs4_NtCsadPz79N6wDl_11calypso_cli4initNtB5_19HostInitEnvironmentNtB5_15InitEnvironment11is_git_repo
FN:363,_RNvXs4_NtCsadPz79N6wDl_11calypso_cli4initNtB5_19HostInitEnvironmentNtB5_15InitEnvironment11path_exists
FN:340,_RNvXs4_NtCsadPz79N6wDl_11calypso_cli4initNtB5_19HostInitEnvironmentNtB5_15InitEnvironment14default_branch
FN:448,_RNvXs4_NtCsadPz79N6wDl_11calypso_cli4initNtB5_19HostInitEnvironmentNtB5_15InitEnvironment14git_hooks_path
FN:381,_RNvXs4_NtCsadPz79N6wDl_11calypso_cli4initNtB5_19HostInitEnvironmentNtB5_15InitEnvironment14remove_dir_all
FN:375,_RNvXs4_NtCsadPz79N6wDl_11calypso_cli4initNtB5_19HostInitEnvironmentNtB5_15InitEnvironment14set_executable
FN:400,_RNvXs4_NtCsadPz79N6wDl_11calypso_cli4initNtB5_19HostInitEnvironmentNtB5_15InitEnvironment18create_github_repo
FN:359,_RNvXs4_NtCsadPz79N6wDl_11calypso_cli4initNtB5_19HostInitEnvironmentNtB5_15InitEnvironment18repo_name_from_url
FN:441,_RNvXs4_NtCsadPz79N6wDl_11calypso_cli4initNtB5_19HostInitEnvironmentNtB5_15InitEnvironment19write_workflow_file
FN:385,_RNvXs4_NtCsadPz79N6wDl_11calypso_cli4initNtB5_19HostInitEnvironmentNtB5_15InitEnvironment8git_init
FN:68,_RNvXs_NtCsadPz79N6wDl_11calypso_cli4initNtB4_8InitStepNtNtCs3XFJfFEDSOQ_4core3fmt7Display3fmt
FN:62,_RNvMNtCsk43tzqYvrEx_11calypso_cli4initNtB2_8InitStep11is_complete
FN:49,_RNvMNtCsk43tzqYvrEx_11calypso_cli4initNtB2_8InitStep4next
FN:35,_RNvMNtCsk43tzqYvrEx_11calypso_cli4initNtB2_8InitStep6as_str
FN:107,_RNvMs0_NtCsk43tzqYvrEx_11calypso_cli4initNtB5_12InitProgress12is_step_done
FN:87,_RNvMs0_NtCsk43tzqYvrEx_11calypso_cli4initNtB5_12InitProgress3new
FN:99,_RNvMs0_NtCsk43tzqYvrEx_11calypso_cli4initNtB5_12InitProgress7advance
FN:506,_RNvNtCsk43tzqYvrEx_11calypso_cli4init13is_github_url
FN:479,_RNvNtCsk43tzqYvrEx_11calypso_cli4init17extract_repo_name
FN:681,_RINvNtCsk43tzqYvrEx_11calypso_cli4init13do_init_stepspEB4_
FN:627,_RINvNtCsk43tzqYvrEx_11calypso_cli4init15init_repositorypEB4_
FN:552,_RINvNtCsk43tzqYvrEx_11calypso_cli4init20run_init_interactivepEB4_
FN:606,_RINvNtCsk43tzqYvrEx_11calypso_cli4init23scaffold_github_actionspEB4_
FN:650,_RNCINvNtCsk43tzqYvrEx_11calypso_cli4init15init_repositorypE0B6_
FN:246,_RNvMs1_NtCsk43tzqYvrEx_11calypso_cli4initNtB5_9InitError3git
FN:749,_RNvNtCsk43tzqYvrEx_11calypso_cli4init21default_feature_state
FN:542,_RNvNtCsk43tzqYvrEx_11calypso_cli4init8run_init
FN:255,_RNvXs2_NtCsk43tzqYvrEx_11calypso_cli4initNtB5_9InitErrorNtNtCs3XFJfFEDSOQ_4core3fmt7Display3fmt
FN:367,_RNvXs4_NtCsk43tzqYvrEx_11calypso_cli4initNtB5_19HostInitEnvironmentNtB5_15InitEnvironment10create_dir
FN:326,_RNvXs4_NtCsk43tzqYvrEx_11calypso_cli4initNtB5_19HostInitEnvironmentNtB5_15InitEnvironment10remote_url
FN:420,_RNvXs4_NtCsk43tzqYvrEx_11calypso_cli4initNtB5_19HostInitEnvironmentNtB5_15InitEnvironment10set_remote
FN:371,_RNvXs4_NtCsk43tzqYvrEx_11calypso_cli4initNtB5_19HostInitEnvironmentNtB5_15InitEnvironment10write_file
FN:318,_RNvXs4_NtCsk43tzqYvrEx_11calypso_cli4initNtB5_19HostInitEnvironmentNtB5_15InitEnvironment11is_git_repo
FN:363,_RNvXs4_NtCsk43tzqYvrEx_11calypso_cli4initNtB5_19HostInitEnvironmentNtB5_15InitEnvironment11path_exists
FN:340,_RNvXs4_NtCsk43tzqYvrEx_11calypso_cli4initNtB5_19HostInitEnvironmentNtB5_15InitEnvironment14default_branch
FN:448,_RNvXs4_NtCsk43tzqYvrEx_11calypso_cli4initNtB5_19HostInitEnvironmentNtB5_15InitEnvironment14git_hooks_path
FN:381,_RNvXs4_NtCsk43tzqYvrEx_11calypso_cli4initNtB5_19HostInitEnvironmentNtB5_15InitEnvironment14remove_dir_all
FN:375,_RNvXs4_NtCsk43tzqYvrEx_11calypso_cli4initNtB5_19HostInitEnvironmentNtB5_15InitEnvironment14set_executable
FN:400,_RNvXs4_NtCsk43tzqYvrEx_11calypso_cli4initNtB5_19HostInitEnvironmentNtB5_15InitEnvironment18create_github_repo
FN:359,_RNvXs4_NtCsk43tzqYvrEx_11calypso_cli4initNtB5_19HostInitEnvironmentNtB5_15InitEnvironment18repo_name_from_url
FN:441,_RNvXs4_NtCsk43tzqYvrEx_11calypso_cli4initNtB5_19HostInitEnvironmentNtB5_15InitEnvironment19write_workflow_file
FN:385,_RNvXs4_NtCsk43tzqYvrEx_11calypso_cli4initNtB5_19HostInitEnvironmentNtB5_15InitEnvironment8git_init
FN:68,_RNvXs_NtCsk43tzqYvrEx_11calypso_cli4initNtB4_8InitStepNtNtCs3XFJfFEDSOQ_4core3fmt7Display3fmt
FN:1028,_RNvNtNtCsk43tzqYvrEx_11calypso_cli4init5testss_25workflow_ci_is_valid_yaml
FN:787,_RNvNtNtCsk43tzqYvrEx_11calypso_cli4init5testss_28is_github_url_recognizes_ssh
FN:917,_RNvNtNtCsk43tzqYvrEx_11calypso_cli4init5testss_30init_step_complete_is_terminal
FN:781,_RNvNtNtCsk43tzqYvrEx_11calypso_cli4init5testss_30is_github_url_recognizes_https
FN:826,_RNvNtNtCsk43tzqYvrEx_11calypso_cli4init5testss_33is_github_url_rejects_http_github
FN:809,_RNvNtNtCsk43tzqYvrEx_11calypso_cli4init5testss_33is_github_url_rejects_other_hosts
FN:936,_RNvNtNtCsk43tzqYvrEx_11calypso_cli4init5testss_34init_step_round_trips_through_json
FN:924,_RNvNtNtCsk43tzqYvrEx_11calypso_cli4init5testss_34init_step_serializes_to_kebab_case
FN:815,_RNvNtNtCsk43tzqYvrEx_11calypso_cli4init5testss_34is_github_url_rejects_empty_string
FN:1009,_RNvNtNtCsk43tzqYvrEx_11calypso_cli4init5testss_35workflow_pr_checklist_is_valid_yaml
FN:873,_RNvNtNtCsk43tzqYvrEx_11calypso_cli4init5testss_36extract_repo_name_empty_returns_none
FN:793,_RNvNtNtCsk43tzqYvrEx_11calypso_cli4init5testss_36is_github_url_rejects_lookalike_host
FN:1019,_RNvNtNtCsk43tzqYvrEx_11calypso_cli4init5testss_36workflow_pr_depends_on_is_valid_yaml
FN:850,_RNvNtNtCsk43tzqYvrEx_11calypso_cli4init5testss_37extract_repo_name_ssh_with_git_suffix
FN:880,_RNvNtNtCsk43tzqYvrEx_11calypso_cli4init5testss_38init_step_as_str_values_are_kebab_case
FN:930,_RNvNtNtCsk43tzqYvrEx_11calypso_cli4init5testss_38init_step_deserializes_from_kebab_case
FN:894,_RNvNtNtCsk43tzqYvrEx_11calypso_cli4init5testss_38init_step_next_follows_linear_sequence
FN:834,_RNvNtNtCsk43tzqYvrEx_11calypso_cli4init5testss_39extract_repo_name_https_with_git_suffix
FN:858,_RNvNtNtCsk43tzqYvrEx_11calypso_cli4init5testss_40extract_repo_name_ssh_without_git_suffix
FN:993,_RNvNtNtCsk43tzqYvrEx_11calypso_cli4init5testss_41init_progress_serializes_and_deserializes
FN:842,_RNvNtNtCsk43tzqYvrEx_11calypso_cli4init5testss_42extract_repo_name_https_without_git_suffix
FN:975,_RNvNtNtCsk43tzqYvrEx_11calypso_cli4init5testss_44init_progress_advance_at_complete_is_a_no_op
FN:963,_RNvNtNtCsk43tzqYvrEx_11calypso_cli4init5testss_44init_progress_advance_moves_through_sequence
FN:956,_RNvNtNtCsk43tzqYvrEx_11calypso_cli4init5testss_44init_progress_new_starts_at_prompt_directory
FN:866,_RNvNtNtCsk43tzqYvrEx_11calypso_cli4init5testss_45extract_repo_name_trailing_slash_returns_none
FN:820,_RNvNtNtCsk43tzqYvrEx_11calypso_cli4init5testss_46is_github_url_rejects_bare_host_without_scheme
FN:801,_RNvNtNtCsk43tzqYvrEx_11calypso_cli4init5testss_50is_github_url_rejects_github_com_as_path_component
FN:986,_RNvNtNtCsk43tzqYvrEx_11calypso_cli4init5testss_57init_progress_is_step_done_returns_false_for_future_steps
FN:514,_RNCNvNtCsk43tzqYvrEx_11calypso_cli4init13is_github_url0B5_
FN:681,_RINvNtCsadPz79N6wDl_11calypso_cli4init13do_init_stepsNtCs11vfNfRaqfo_4init7FakeEnvEBR_
FN:627,_RINvNtCsadPz79N6wDl_11calypso_cli4init15init_repositoryNtCs11vfNfRaqfo_4init7FakeEnvEBT_
FN:552,_RINvNtCsadPz79N6wDl_11calypso_cli4init20run_init_interactiveNtCs11vfNfRaqfo_4init7FakeEnvEBY_
FN:606,_RINvNtCsadPz79N6wDl_11calypso_cli4init23scaffold_github_actionsNtCs11vfNfRaqfo_4init7FakeEnvEB11_
FN:650,_RNCINvNtCsadPz79N6wDl_11calypso_cli4init15init_repositoryNtCs11vfNfRaqfo_4init7FakeEnvE0BV_
FNDA:0,_RINvNtCsadPz79N6wDl_11calypso_cli4init20run_init_interactiveNtB2_19HostInitEnvironmentECsiwaishIGMxq_11calypso_cli
FNDA:0,_RINvNtCsadPz79N6wDl_11calypso_cli4init23scaffold_github_actionsNtB2_19HostInitEnvironmentECsiwaishIGMxq_11calypso_cli
FNDA:3,_RINvNtCsadPz79N6wDl_11calypso_cli4init13do_init_stepsNtB2_19HostInitEnvironmentEB4_
FNDA:6,_RINvNtCsadPz79N6wDl_11calypso_cli4init15init_repositoryNtB2_19HostInitEnvironmentEB4_
FNDA:0,_RNCINvNtCsadPz79N6wDl_11calypso_cli4init15init_repositoryNtB4_19HostInitEnvironmentE0B6_
FNDA:1,_RNCNvNtCsadPz79N6wDl_11calypso_cli4init13is_github_url0B5_
FNDA:4,_RNvMNtCsadPz79N6wDl_11calypso_cli4initNtB2_8InitStep11is_complete
FNDA:41,_RNvMNtCsadPz79N6wDl_11calypso_cli4initNtB2_8InitStep4next
FNDA:21,_RNvMNtCsadPz79N6wDl_11calypso_cli4initNtB2_8InitStep6as_str
FNDA:8,_RNvMs0_NtCsadPz79N6wDl_11calypso_cli4initNtB5_12InitProgress12is_step_done
FNDA:9,_RNvMs0_NtCsadPz79N6wDl_11calypso_cli4initNtB5_12InitProgress3new
FNDA:34,_RNvMs0_NtCsadPz79N6wDl_11calypso_cli4initNtB5_12InitProgress7advance
FNDA:0,_RNvMs1_NtCsadPz79N6wDl_11calypso_cli4initNtB5_9InitError3git
FNDA:19,_RNvNtCsadPz79N6wDl_11calypso_cli4init13is_github_url
FNDA:4,_RNvNtCsadPz79N6wDl_11calypso_cli4init17extract_repo_name
FNDA:11,_RNvNtCsadPz79N6wDl_11calypso_cli4init21default_feature_state
FNDA:0,_RNvNtCsadPz79N6wDl_11calypso_cli4init8run_init
FNDA:3,_RNvXs2_NtCsadPz79N6wDl_11calypso_cli4initNtB5_9InitErrorNtNtCs3XFJfFEDSOQ_4core3fmt7Display3fmt
FNDA:6,_RNvXs4_NtCsadPz79N6wDl_11calypso_cli4initNtB5_19HostInitEnvironmentNtB5_15InitEnvironment10create_dir
FNDA:5,_RNvXs4_NtCsadPz79N6wDl_11calypso_cli4initNtB5_19HostInitEnvironmentNtB5_15InitEnvironment10remote_url
FNDA:0,_RNvXs4_NtCsadPz79N6wDl_11calypso_cli4initNtB5_19HostInitEnvironmentNtB5_15InitEnvironment10set_remote
FNDA:15,_RNvXs4_NtCsadPz79N6wDl_11calypso_cli4initNtB5_19HostInitEnvironmentNtB5_15InitEnvironment10write_file
FNDA:6,_RNvXs4_NtCsadPz79N6wDl_11calypso_cli4initNtB5_19HostInitEnvironmentNtB5_15InitEnvironment11is_git_repo
FNDA:4,_RNvXs4_NtCsadPz79N6wDl_11calypso_cli4initNtB5_19HostInitEnvironmentNtB5_15InitEnvironment11path_exists
FNDA:4,_RNvXs4_NtCsadPz79N6wDl_11calypso_cli4initNtB5_19HostInitEnvironmentNtB5_15InitEnvironment14default_branch
FNDA:3,_RNvXs4_NtCsadPz79N6wDl_11calypso_cli4initNtB5_19HostInitEnvironmentNtB5_15InitEnvironment14git_hooks_path
FNDA:0,_RNvXs4_NtCsadPz79N6wDl_11calypso_cli4initNtB5_19HostInitEnvironmentNtB5_15InitEnvironment14remove_dir_all
FNDA:3,_RNvXs4_NtCsadPz79N6wDl_11calypso_cli4initNtB5_19HostInitEnvironmentNtB5_15InitEnvironment14set_executable
FNDA:0,_RNvXs4_NtCsadPz79N6wDl_11calypso_cli4initNtB5_19HostInitEnvironmentNtB5_15InitEnvironment18create_github_repo
FNDA:4,_RNvXs4_NtCsadPz79N6wDl_11calypso_cli4initNtB5_19HostInitEnvironmentNtB5_15InitEnvironment18repo_name_from_url
FNDA:0,_RNvXs4_NtCsadPz79N6wDl_11calypso_cli4initNtB5_19HostInitEnvironmentNtB5_15InitEnvironment19write_workflow_file
FNDA:0,_RNvXs4_NtCsadPz79N6wDl_11calypso_cli4initNtB5_19HostInitEnvironmentNtB5_15InitEnvironment8git_init
FNDA:7,_RNvXs_NtCsadPz79N6wDl_11calypso_cli4initNtB4_8InitStepNtNtCs3XFJfFEDSOQ_4core3fmt7Display3fmt
FNDA:3,_RNvMNtCsk43tzqYvrEx_11calypso_cli4initNtB2_8InitStep11is_complete
FNDA:17,_RNvMNtCsk43tzqYvrEx_11calypso_cli4initNtB2_8InitStep4next
FNDA:7,_RNvMNtCsk43tzqYvrEx_11calypso_cli4initNtB2_8InitStep6as_str
FNDA:5,_RNvMs0_NtCsk43tzqYvrEx_11calypso_cli4initNtB5_12InitProgress12is_step_done
FNDA:5,_RNvMs0_NtCsk43tzqYvrEx_11calypso_cli4initNtB5_12InitProgress3new
FNDA:10,_RNvMs0_NtCsk43tzqYvrEx_11calypso_cli4initNtB5_12InitProgress7advance
FNDA:13,_RNvNtCsk43tzqYvrEx_11calypso_cli4init13is_github_url
FNDA:6,_RNvNtCsk43tzqYvrEx_11calypso_cli4init17extract_repo_name
FNDA:0,_RINvNtCsk43tzqYvrEx_11calypso_cli4init13do_init_stepspEB4_
FNDA:0,_RINvNtCsk43tzqYvrEx_11calypso_cli4init15init_repositorypEB4_
FNDA:0,_RINvNtCsk43tzqYvrEx_11calypso_cli4init20run_init_interactivepEB4_
FNDA:0,_RINvNtCsk43tzqYvrEx_11calypso_cli4init23scaffold_github_actionspEB4_
FNDA:0,_RNCINvNtCsk43tzqYvrEx_11calypso_cli4init15init_repositorypE0B6_
FNDA:0,_RNvMs1_NtCsk43tzqYvrEx_11calypso_cli4initNtB5_9InitError3git
FNDA:0,_RNvNtCsk43tzqYvrEx_11calypso_cli4init21default_feature_state
FNDA:0,_RNvNtCsk43tzqYvrEx_11calypso_cli4init8run_init
FNDA:0,_RNvXs2_NtCsk43tzqYvrEx_11calypso_cli4initNtB5_9InitErrorNtNtCs3XFJfFEDSOQ_4core3fmt7Display3fmt
FNDA:0,_RNvXs4_NtCsk43tzqYvrEx_11calypso_cli4initNtB5_19HostInitEnvironmentNtB5_15InitEnvironment10create_dir
FNDA:0,_RNvXs4_NtCsk43tzqYvrEx_11calypso_cli4initNtB5_19HostInitEnvironmentNtB5_15InitEnvironment10remote_url
FNDA:0,_RNvXs4_NtCsk43tzqYvrEx_11calypso_cli4initNtB5_19HostInitEnvironmentNtB5_15InitEnvironment10set_remote
FNDA:0,_RNvXs4_NtCsk43tzqYvrEx_11calypso_cli4initNtB5_19HostInitEnvironmentNtB5_15InitEnvironment10write_file
FNDA:0,_RNvXs4_NtCsk43tzqYvrEx_11calypso_cli4initNtB5_19HostInitEnvironmentNtB5_15InitEnvironment11is_git_repo
FNDA:0,_RNvXs4_NtCsk43tzqYvrEx_11calypso_cli4initNtB5_19HostInitEnvironmentNtB5_15InitEnvironment11path_exists
FNDA:0,_RNvXs4_NtCsk43tzqYvrEx_11calypso_cli4initNtB5_19HostInitEnvironmentNtB5_15InitEnvironment14default_branch
FNDA:0,_RNvXs4_NtCsk43tzqYvrEx_11calypso_cli4initNtB5_19HostInitEnvironmentNtB5_15InitEnvironment14git_hooks_path
FNDA:0,_RNvXs4_NtCsk43tzqYvrEx_11calypso_cli4initNtB5_19HostInitEnvironmentNtB5_15InitEnvironment14remove_dir_all
FNDA:0,_RNvXs4_NtCsk43tzqYvrEx_11calypso_cli4initNtB5_19HostInitEnvironmentNtB5_15InitEnvironment14set_executable
FNDA:0,_RNvXs4_NtCsk43tzqYvrEx_11calypso_cli4initNtB5_19HostInitEnvironmentNtB5_15InitEnvironment18create_github_repo
FNDA:0,_RNvXs4_NtCsk43tzqYvrEx_11calypso_cli4initNtB5_19HostInitEnvironmentNtB5_15InitEnvironment18repo_name_from_url
FNDA:0,_RNvXs4_NtCsk43tzqYvrEx_11calypso_cli4initNtB5_19HostInitEnvironmentNtB5_15InitEnvironment19write_workflow_file
FNDA:0,_RNvXs4_NtCsk43tzqYvrEx_11calypso_cli4initNtB5_19HostInitEnvironmentNtB5_15InitEnvironment8git_init
FNDA:0,_RNvXs_NtCsk43tzqYvrEx_11calypso_cli4initNtB4_8InitStepNtNtCs3XFJfFEDSOQ_4core3fmt7Display3fmt
FNDA:1,_RNvNtNtCsk43tzqYvrEx_11calypso_cli4init5testss_25workflow_ci_is_valid_yaml
FNDA:1,_RNvNtNtCsk43tzqYvrEx_11calypso_cli4init5testss_28is_github_url_recognizes_ssh
FNDA:1,_RNvNtNtCsk43tzqYvrEx_11calypso_cli4init5testss_30init_step_complete_is_terminal
FNDA:1,_RNvNtNtCsk43tzqYvrEx_11calypso_cli4init5testss_30is_github_url_recognizes_https
FNDA:1,_RNvNtNtCsk43tzqYvrEx_11calypso_cli4init5testss_33is_github_url_rejects_http_github
FNDA:1,_RNvNtNtCsk43tzqYvrEx_11calypso_cli4init5testss_33is_github_url_rejects_other_hosts
FNDA:1,_RNvNtNtCsk43tzqYvrEx_11calypso_cli4init5testss_34init_step_round_trips_through_json
FNDA:1,_RNvNtNtCsk43tzqYvrEx_11calypso_cli4init5testss_34init_step_serializes_to_kebab_case
FNDA:1,_RNvNtNtCsk43tzqYvrEx_11calypso_cli4init5testss_34is_github_url_rejects_empty_string
FNDA:1,_RNvNtNtCsk43tzqYvrEx_11calypso_cli4init5testss_35workflow_pr_checklist_is_valid_yaml
FNDA:1,_RNvNtNtCsk43tzqYvrEx_11calypso_cli4init5testss_36extract_repo_name_empty_returns_none
FNDA:1,_RNvNtNtCsk43tzqYvrEx_11calypso_cli4init5testss_36is_github_url_rejects_lookalike_host
FNDA:1,_RNvNtNtCsk43tzqYvrEx_11calypso_cli4init5testss_36workflow_pr_depends_on_is_valid_yaml
FNDA:1,_RNvNtNtCsk43tzqYvrEx_11calypso_cli4init5testss_37extract_repo_name_ssh_with_git_suffix
FNDA:1,_RNvNtNtCsk43tzqYvrEx_11calypso_cli4init5testss_38init_step_as_str_values_are_kebab_case
FNDA:1,_RNvNtNtCsk43tzqYvrEx_11calypso_cli4init5testss_38init_step_deserializes_from_kebab_case
FNDA:1,_RNvNtNtCsk43tzqYvrEx_11calypso_cli4init5testss_38init_step_next_follows_linear_sequence
FNDA:1,_RNvNtNtCsk43tzqYvrEx_11calypso_cli4init5testss_39extract_repo_name_https_with_git_suffix
FNDA:1,_RNvNtNtCsk43tzqYvrEx_11calypso_cli4init5testss_40extract_repo_name_ssh_without_git_suffix
FNDA:1,_RNvNtNtCsk43tzqYvrEx_11calypso_cli4init5testss_41init_progress_serializes_and_deserializes
FNDA:1,_RNvNtNtCsk43tzqYvrEx_11calypso_cli4init5testss_42extract_repo_name_https_without_git_suffix
FNDA:1,_RNvNtNtCsk43tzqYvrEx_11calypso_cli4init5testss_44init_progress_advance_at_complete_is_a_no_op
FNDA:1,_RNvNtNtCsk43tzqYvrEx_11calypso_cli4init5testss_44init_progress_advance_moves_through_sequence
FNDA:1,_RNvNtNtCsk43tzqYvrEx_11calypso_cli4init5testss_44init_progress_new_starts_at_prompt_directory
FNDA:1,_RNvNtNtCsk43tzqYvrEx_11calypso_cli4init5testss_45extract_repo_name_trailing_slash_returns_none
FNDA:1,_RNvNtNtCsk43tzqYvrEx_11calypso_cli4init5testss_46is_github_url_rejects_bare_host_without_scheme
FNDA:1,_RNvNtNtCsk43tzqYvrEx_11calypso_cli4init5testss_50is_github_url_rejects_github_com_as_path_component
FNDA:1,_RNvNtNtCsk43tzqYvrEx_11calypso_cli4init5testss_57init_progress_is_step_done_returns_false_for_future_steps
FNDA:5,_RNCNvNtCsk43tzqYvrEx_11calypso_cli4init13is_github_url0B5_
FNDA:8,_RINvNtCsadPz79N6wDl_11calypso_cli4init13do_init_stepsNtCs11vfNfRaqfo_4init7FakeEnvEBR_
FNDA:11,_RINvNtCsadPz79N6wDl_11calypso_cli4init15init_repositoryNtCs11vfNfRaqfo_4init7FakeEnvEBT_
FNDA:4,_RINvNtCsadPz79N6wDl_11calypso_cli4init20run_init_interactiveNtCs11vfNfRaqfo_4init7FakeEnvEBY_
FNDA:6,_RINvNtCsadPz79N6wDl_11calypso_cli4init23scaffold_github_actionsNtCs11vfNfRaqfo_4init7FakeEnvEB11_
FNDA:0,_RNCINvNtCsadPz79N6wDl_11calypso_cli4init15init_repositoryNtCs11vfNfRaqfo_4init7FakeEnvE0BV_
FNF:61
FNH:53
DA:35,28
DA:36,28
DA:37,4
DA:38,4
DA:39,4
DA:40,4
DA:41,4
DA:42,4
DA:43,4
DA:45,28
DA:49,58
DA:50,58
DA:51,12
DA:52,10
DA:53,8
DA:54,8
DA:55,8
DA:56,8
DA:57,4
DA:59,58
DA:62,7
DA:63,7
DA:64,7
DA:68,7
DA:69,7
DA:70,7
DA:87,14
DA:88,14
DA:89,14
DA:90,14
DA:91,14
DA:92,14
DA:93,14
DA:94,14
DA:95,14
DA:99,44
DA:100,44
DA:101,42
DA:102,42
DA:103,42
DA:104,44
DA:107,13
DA:108,13
DA:109,13
DA:246,0
DA:247,0
DA:248,0
DA:249,0
DA:250,0
DA:251,0
DA:255,3
DA:256,3
DA:257,0
DA:258,1
DA:259,1
DA:260,1
DA:261,1
DA:263,1
DA:264,1
DA:265,1
DA:266,1
DA:268,0
DA:269,0
DA:271,1
DA:272,1
DA:273,1
DA:274,1
DA:276,0
DA:278,3
DA:318,6
DA:319,6
DA:320,6
DA:321,6
DA:322,6
DA:323,6
DA:324,6
DA:326,5
DA:327,5
DA:328,5
DA:329,5
DA:330,5
DA:331,5
DA:332,0
DA:333,0
DA:334,0
DA:335,0
DA:336,5
DA:337,5
DA:338,5
DA:340,4
DA:341,4
DA:342,4
DA:343,4
DA:344,4
DA:345,4
DA:346,4
DA:347,4
DA:348,4
DA:349,4
DA:350,4
DA:352,4
DA:353,0
DA:354,0
DA:356,0
DA:357,4
DA:359,4
DA:360,4
DA:361,4
DA:363,4
DA:364,4
DA:365,4
DA:367,6
DA:368,6
DA:369,6
DA:371,15
DA:372,15
DA:373,15
DA:375,3
DA:376,3
DA:377,3
DA:378,3
DA:379,3
DA:381,0
DA:382,0
DA:383,0
DA:385,0
DA:386,0
DA:387,0
DA:388,0
DA:389,0
DA:390,0
DA:391,0
DA:392,0
DA:393,0
DA:394,0
DA:395,0
DA:396,0
DA:397,0
DA:398,0
DA:400,0
DA:401,0
DA:402,0
DA:403,0
DA:404,0
DA:405,0
DA:406,0
DA:407,0
DA:408,0
DA:409,0
DA:410,0
DA:411,0
DA:412,0
DA:413,0
DA:414,0
DA:415,0
DA:416,0
DA:417,0
DA:418,0
DA:420,0
DA:421,0
DA:422,0
DA:423,0
DA:424,0
DA:425,0
DA:426,0
DA:427,0
DA:428,0
DA:429,0
DA:430,0
DA:431,0
DA:432,0
DA:433,0
DA:434,0
DA:435,0
DA:436,0
DA:437,0
DA:438,0
DA:439,0
DA:441,0
DA:442,0
DA:443,0
DA:444,0
DA:445,0
DA:446,0
DA:448,3
DA:449,3
DA:450,3
DA:451,3
DA:452,3
DA:453,3
DA:454,3
DA:455,3
DA:456,3
DA:457,3
DA:458,3
DA:459,3
DA:460,0
DA:461,0
DA:462,0
DA:463,0
DA:464,3
DA:465,3
DA:467,3
DA:468,0
DA:470,3
DA:472,3
DA:479,10
DA:484,10
DA:485,10
DA:486,10
DA:490,10
DA:491,8
DA:492,2
DA:494,1
DA:495,1
DA:496,1
DA:497,1
DA:499,0
DA:502,1
DA:504,10
DA:506,32
DA:512,32
DA:513,32
DA:514,32
DA:518,27
DA:519,5
DA:520,2
DA:522,3
DA:524,32
DA:542,0
DA:543,0
DA:544,0
DA:552,4
DA:553,4
DA:554,4
DA:555,4
DA:556,4
DA:557,4
DA:560,4
DA:563,4
DA:564,1
DA:565,3
DA:566,4
DA:571,4
DA:574,4
DA:575,4
DA:578,4
DA:579,4
DA:580,3
DA:581,3
DA:582,3
DA:583,3
DA:584,3
DA:585,3
DA:586,3
DA:587,3
DA:588,3
DA:589,1
DA:590,4
DA:594,4
DA:596,4
DA:597,4
DA:606,6
DA:607,6
DA:608,6
DA:609,6
DA:610,6
DA:611,6
DA:612,6
DA:613,6
DA:614,6
DA:616,6
DA:617,24
DA:618,18
DA:619,18
DA:620,17
DA:621,17
DA:622,1
DA:624,6
DA:625,6
DA:627,17
DA:628,17
DA:629,17
DA:630,17
DA:632,17
DA:633,2
DA:634,2
DA:635,2
DA:636,15
DA:639,15
DA:640,15
DA:641,2
DA:642,13
DA:645,13
DA:648,13
DA:649,13
DA:650,13
DA:652,13
DA:655,13
DA:656,2
DA:657,2
DA:658,2
DA:659,11
DA:662,11
DA:665,11
DA:666,11
DA:667,11
DA:668,11
DA:669,11
DA:670,11
DA:671,11
DA:674,11
DA:675,1
DA:676,10
DA:678,11
DA:679,17
DA:681,11
DA:682,11
DA:683,11
DA:684,11
DA:685,11
DA:686,11
DA:687,11
DA:688,11
DA:689,11
DA:692,11
DA:693,11
DA:694,11
DA:695,11
DA:696,11
DA:698,11
DA:699,2
DA:701,9
DA:704,11
DA:705,11
DA:706,11
DA:707,11
DA:708,11
DA:709,11
DA:710,11
DA:711,11
DA:712,11
DA:713,11
DA:715,11
DA:716,11
DA:719,10
DA:721,10
DA:722,10
DA:723,10
DA:725,10
DA:726,10
DA:727,10
DA:729,10
DA:730,10
DA:731,10
DA:734,10
DA:735,10
DA:736,10
DA:737,10
DA:738,10
DA:739,10
DA:741,10
DA:742,10
DA:743,10
DA:744,10
DA:745,10
DA:746,10
DA:747,11
DA:749,11
DA:752,11
DA:753,11
DA:754,11
DA:755,11
DA:756,11
DA:757,11
DA:758,11
DA:759,11
DA:760,11
DA:761,11
DA:762,11
DA:763,11
DA:764,11
DA:765,11
DA:766,11
DA:767,11
DA:768,11
DA:769,11
DA:770,11
DA:771,11
DA:772,11
DA:781,1
DA:782,1
DA:783,1
DA:784,1
DA:787,1
DA:788,1
DA:789,1
DA:790,1
DA:793,1
DA:795,1
DA:796,1
DA:797,1
DA:798,1
DA:801,1
DA:803,1
DA:804,1
DA:805,1
DA:806,1
DA:809,1
DA:810,1
DA:811,1
DA:812,1
DA:815,1
DA:816,1
DA:817,1
DA:820,1
DA:822,1
DA:823,1
DA:826,1
DA:828,1
DA:829,1
DA:834,1
DA:835,1
DA:836,1
DA:837,1
DA:839,1
DA:842,1
DA:843,1
DA:844,1
DA:845,1
DA:847,1
DA:850,1
DA:851,1
DA:852,1
DA:853,1
DA:855,1
DA:858,1
DA:859,1
DA:860,1
DA:861,1
DA:863,1
DA:866,1
DA:869,1
DA:870,1
DA:873,1
DA:874,1
DA:875,1
DA:880,1
DA:881,1
DA:882,1
DA:883,1
DA:884,1
DA:885,1
DA:888,1
DA:889,1
DA:890,1
DA:891,1
DA:894,1
DA:895,1
DA:896,1
DA:899,1
DA:900,1
DA:903,1
DA:904,1
DA:907,1
DA:908,1
DA:911,1
DA:912,1
DA:913,1
DA:914,1
DA:917,1
DA:918,1
DA:919,1
DA:920,1
DA:921,1
DA:924,1
DA:925,1
DA:926,1
DA:927,1
DA:930,1
DA:931,1
DA:932,1
DA:933,1
DA:936,1
DA:937,1
DA:938,1
DA:939,1
DA:940,1
DA:941,1
DA:942,1
DA:943,1
DA:944,1
DA:945,1
DA:946,8
DA:947,7
DA:948,7
DA:949,7
DA:951,1
DA:956,1
DA:957,1
DA:958,1
DA:959,1
DA:960,1
DA:963,1
DA:964,1
DA:965,1
DA:966,1
DA:967,1
DA:969,1
DA:970,1
DA:971,1
DA:972,1
DA:975,1
DA:976,1
DA:977,7
DA:978,6
DA:979,6
DA:980,1
DA:981,1
DA:982,1
DA:983,1
DA:986,1
DA:987,1
DA:988,1
DA:989,1
DA:990,1
DA:993,1
DA:994,1
DA:995,1
DA:996,1
DA:997,1
DA:999,1
DA:1000,1
DA:1001,1
DA:1002,1
DA:1003,1
DA:1004,1
DA:1009,1
DA:1010,1
DA:1011,1
DA:1012,1
DA:1013,1
DA:1014,1
DA:1015,1
DA:1016,1
DA:1019,1
DA:1020,1
DA:1021,1
DA:1022,1
DA:1023,1
DA:1024,1
DA:1025,1
DA:1028,1
DA:1029,1
DA:1030,1
DA:1031,1
DA:1032,1
DA:1033,1
BRF:0
BRH:0
LF:560
LH:471
end_of_record
SF:/home/lucas/calypso/.claude/worktrees/agent-a62ed768/cli/src/lib.rs
FN:41,_RNvCsadPz79N6wDl_11calypso_cli11render_help
FN:34,_RNvCsadPz79N6wDl_11calypso_cli14render_version
FN:87,_RNvNtCsk43tzqYvrEx_11calypso_cli5tests11sample_info
FN:107,_RNvNtCsk43tzqYvrEx_11calypso_cli5testss_31version_output_is_a_single_line
FN:113,_RNvNtCsk43tzqYvrEx_11calypso_cli5testss_39help_output_exposes_version_information
FN:97,_RNvNtCsk43tzqYvrEx_11calypso_cli5testss_47version_output_contains_required_build_metadata
FN:41,_RNvCsk43tzqYvrEx_11calypso_cli11render_help
FN:34,_RNvCsk43tzqYvrEx_11calypso_cli14render_version
FNDA:3,_RNvCsadPz79N6wDl_11calypso_cli11render_help
FNDA:2,_RNvCsadPz79N6wDl_11calypso_cli14render_version
FNDA:3,_RNvNtCsk43tzqYvrEx_11calypso_cli5tests11sample_info
FNDA:1,_RNvNtCsk43tzqYvrEx_11calypso_cli5testss_31version_output_is_a_single_line
FNDA:1,_RNvNtCsk43tzqYvrEx_11calypso_cli5testss_39help_output_exposes_version_information
FNDA:1,_RNvNtCsk43tzqYvrEx_11calypso_cli5testss_47version_output_contains_required_build_metadata
FNDA:1,_RNvCsk43tzqYvrEx_11calypso_cli11render_help
FNDA:2,_RNvCsk43tzqYvrEx_11calypso_cli14render_version
FNF:6
FNH:6
DA:34,4
DA:35,4
DA:36,4
DA:39,4
DA:41,4
DA:42,4
DA:43,4
DA:44,4
DA:45,4
DA:46,4
DA:47,4
DA:48,4
DA:49,4
DA:50,4
DA:51,4
DA:52,4
DA:53,4
DA:54,4
DA:55,4
DA:56,4
DA:57,4
DA:58,4
DA:59,4
DA:60,4
DA:61,4
DA:62,4
DA:63,4
DA:64,4
DA:65,4
DA:66,4
DA:67,4
DA:68,4
DA:69,4
DA:70,4
DA:71,4
DA:72,4
DA:73,4
DA:74,4
DA:75,4
DA:76,4
DA:77,4
DA:78,4
DA:81,4
DA:87,3
DA:88,3
DA:89,3
DA:90,3
DA:91,3
DA:92,3
DA:93,3
DA:94,3
DA:97,1
DA:98,1
DA:100,1
DA:101,1
DA:102,1
DA:103,1
DA:104,1
DA:107,1
DA:108,1
DA:109,1
DA:110,1
DA:113,1
DA:114,1
DA:116,1
DA:117,1
DA:118,1
DA:119,1
DA:120,1
DA:121,1
DA:122,1
BRF:0
BRH:0
LF:71
LH:71
end_of_record
SF:/home/lucas/calypso/.claude/worktrees/agent-a62ed768/cli/src/main.rs
FN:485,_RINvCsiwaishIGMxq_11calypso_cli19run_status_tui_withNvNtCsadPz79N6wDl_11calypso_cli3tui20run_terminal_surfaceEB2_
FN:490,_RNCINvCsiwaishIGMxq_11calypso_cli19run_status_tui_withNvNtCsadPz79N6wDl_11calypso_cli3tui20run_terminal_surfaceE0B4_
FN:494,_RNCINvCsiwaishIGMxq_11calypso_cli19run_status_tui_withNvNtCsadPz79N6wDl_11calypso_cli3tui20run_terminal_surfaceEs0_0B4_
FN:491,_RNCINvCsiwaishIGMxq_11calypso_cli19run_status_tui_withNvNtCsadPz79N6wDl_11calypso_cli3tui20run_terminal_surfaceEs_0B4_
FN:411,_RNCNvCsiwaishIGMxq_11calypso_cli14run_doctor_fix0B3_
FN:417,_RNCNvCsiwaishIGMxq_11calypso_cli14run_doctor_fixs_0B3_
FN:40,_RNCNvCsiwaishIGMxq_11calypso_cli4main0B3_
FN:225,_RNCNvCsiwaishIGMxq_11calypso_cli4mains0_0B3_
FN:234,_RNCNvCsiwaishIGMxq_11calypso_cli4mains1_0B3_
FN:216,_RNCNvCsiwaishIGMxq_11calypso_cli4mains_0B3_
FN:17,_RNvCsiwaishIGMxq_11calypso_cli10build_info
FN:474,_RNvCsiwaishIGMxq_11calypso_cli13render_status
FN:410,_RNvCsiwaishIGMxq_11calypso_cli14run_doctor_fix
FN:481,_RNvCsiwaishIGMxq_11calypso_cli14run_status_tui
FN:403,_RNvCsiwaishIGMxq_11calypso_cli15looks_like_path
FN:377,_RNvCsiwaishIGMxq_11calypso_cli16run_calypso_init
FN:242,_RNvCsiwaishIGMxq_11calypso_cli17extract_path_flag
FN:497,_RNvCsiwaishIGMxq_11calypso_cli18run_claude_session
FN:393,_RNvCsiwaishIGMxq_11calypso_cli19run_init_state_show
FN:345,_RNvCsiwaishIGMxq_11calypso_cli21build_headless_config
FN:454,_RNvCsiwaishIGMxq_11calypso_cli21run_template_validate
FN:281,_RNvCsiwaishIGMxq_11calypso_cli22extract_headless_flags
FN:546,_RNvCsiwaishIGMxq_11calypso_cli22run_state_machine_auto
FN:589,_RNvCsiwaishIGMxq_11calypso_cli22run_state_machine_step
FN:32,_RNvCsiwaishIGMxq_11calypso_cli4main
FN:485,_RINvCs4rgrneSNydo_11calypso_cli19run_status_tui_withpEB2_
FN:490,_RNCINvCs4rgrneSNydo_11calypso_cli19run_status_tui_withpE0B4_
FN:494,_RNCINvCs4rgrneSNydo_11calypso_cli19run_status_tui_withpEs0_0B4_
FN:491,_RNCINvCs4rgrneSNydo_11calypso_cli19run_status_tui_withpEs_0B4_
FN:411,_RNCNvCs4rgrneSNydo_11calypso_cli14run_doctor_fix0B3_
FN:417,_RNCNvCs4rgrneSNydo_11calypso_cli14run_doctor_fixs_0B3_
FN:40,_RNCNvCs4rgrneSNydo_11calypso_cli4main0B3_
FN:225,_RNCNvCs4rgrneSNydo_11calypso_cli4mains0_0B3_
FN:234,_RNCNvCs4rgrneSNydo_11calypso_cli4mains1_0B3_
FN:216,_RNCNvCs4rgrneSNydo_11calypso_cli4mains_0B3_
FN:17,_RNvCs4rgrneSNydo_11calypso_cli10build_info
FN:474,_RNvCs4rgrneSNydo_11calypso_cli13render_status
FN:410,_RNvCs4rgrneSNydo_11calypso_cli14run_doctor_fix
FN:481,_RNvCs4rgrneSNydo_11calypso_cli14run_status_tui
FN:377,_RNvCs4rgrneSNydo_11calypso_cli16run_calypso_init
FN:497,_RNvCs4rgrneSNydo_11calypso_cli18run_claude_session
FN:393,_RNvCs4rgrneSNydo_11calypso_cli19run_init_state_show
FN:454,_RNvCs4rgrneSNydo_11calypso_cli21run_template_validate
FN:546,_RNvCs4rgrneSNydo_11calypso_cli22run_state_machine_auto
FN:589,_RNvCs4rgrneSNydo_11calypso_cli22run_state_machine_step
FN:32,_RNvCs4rgrneSNydo_11calypso_cli4main
FN:868,_RNCNvNtCs4rgrneSNydo_11calypso_cli5tests1s0B5_
FN:867,_RNvNtCs4rgrneSNydo_11calypso_cli5tests1s
FN:754,_RNvNtCs4rgrneSNydo_11calypso_cli5testss_22config_log_format_text
FN:733,_RNvNtCs4rgrneSNydo_11calypso_cli5testss_23config_single_v_is_info
FN:740,_RNvNtCs4rgrneSNydo_11calypso_cli5testss_25config_double_vv_is_debug
FN:660,_RNvNtCs4rgrneSNydo_11calypso_cli5testss_25headless_flag_is_detected
FN:717,_RNvNtCs4rgrneSNydo_11calypso_cli5testss_25headless_flags_empty_args
FN:703,_RNvNtCs4rgrneSNydo_11calypso_cli5testss_29headless_with_log_format_json
FN:697,_RNvNtCs4rgrneSNydo_11calypso_cli5testss_29headless_with_log_format_text
FN:726,_RNvNtCs4rgrneSNydo_11calypso_cli5testss_32config_default_verbosity_is_warn
FN:806,_RNvNtCs4rgrneSNydo_11calypso_cli5testss_32looks_like_path_recognises_tilde
FN:747,_RNvNtCs4rgrneSNydo_11calypso_cli5testss_33config_default_log_format_is_json
FN:836,_RNvNtCs4rgrneSNydo_11calypso_cli5testss_34extract_path_flag_strips_long_flag
FN:828,_RNvNtCs4rgrneSNydo_11calypso_cli5testss_35extract_path_flag_strips_short_flag
FN:800,_RNvNtCs4rgrneSNydo_11calypso_cli5testss_35looks_like_path_recognises_absolute
FN:811,_RNvNtCs4rgrneSNydo_11calypso_cli5testss_35looks_like_path_rejects_subcommands
FN:667,_RNvNtCs4rgrneSNydo_11calypso_cli5testss_38headless_not_consumed_after_subcommand
FN:861,_RNvNtCs4rgrneSNydo_11calypso_cli5testss_39extract_path_flag_works_with_empty_args
FN:676,_RNvNtCs4rgrneSNydo_11calypso_cli5testss_39headless_with_single_v_sets_verbosity_1
FN:793,_RNvNtCs4rgrneSNydo_11calypso_cli5testss_39looks_like_path_recognises_dot_relative
FN:844,_RNvNtCs4rgrneSNydo_11calypso_cli5testss_40extract_path_flag_flag_at_end_is_ignored
FN:683,_RNvNtCs4rgrneSNydo_11calypso_cli5testss_40headless_with_double_vv_sets_verbosity_2
FN:853,_RNvNtCs4rgrneSNydo_11calypso_cli5testss_42extract_path_flag_returns_none_when_absent
FN:690,_RNvNtCs4rgrneSNydo_11calypso_cli5testss_42headless_with_two_v_flags_sets_verbosity_2
FN:820,_RNvNtCs4rgrneSNydo_11calypso_cli5testss_42looks_like_path_accepts_existing_directory
FN:709,_RNvNtCs4rgrneSNydo_11calypso_cli5testss_42v_flag_without_headless_stays_in_remaining
FN:768,_RNvNtCs4rgrneSNydo_11calypso_cli5testss_46config_env_log_override_captured_when_both_set
FN:761,_RNvNtCs4rgrneSNydo_11calypso_cli5testss_46config_env_log_override_none_when_no_verbosity
FN:403,_RNvCs4rgrneSNydo_11calypso_cli15looks_like_path
FN:242,_RNvCs4rgrneSNydo_11calypso_cli17extract_path_flag
FN:345,_RNvCs4rgrneSNydo_11calypso_cli21build_headless_config
FN:281,_RNvCs4rgrneSNydo_11calypso_cli22extract_headless_flags
FNDA:1,_RINvCsiwaishIGMxq_11calypso_cli19run_status_tui_withNvNtCsadPz79N6wDl_11calypso_cli3tui20run_terminal_surfaceEB2_
FNDA:0,_RNCINvCsiwaishIGMxq_11calypso_cli19run_status_tui_withNvNtCsadPz79N6wDl_11calypso_cli3tui20run_terminal_surfaceE0B4_
FNDA:0,_RNCINvCsiwaishIGMxq_11calypso_cli19run_status_tui_withNvNtCsadPz79N6wDl_11calypso_cli3tui20run_terminal_surfaceEs0_0B4_
FNDA:0,_RNCINvCsiwaishIGMxq_11calypso_cli19run_status_tui_withNvNtCsadPz79N6wDl_11calypso_cli3tui20run_terminal_surfaceEs_0B4_
FNDA:0,_RNCNvCsiwaishIGMxq_11calypso_cli14run_doctor_fix0B3_
FNDA:8,_RNCNvCsiwaishIGMxq_11calypso_cli14run_doctor_fixs_0B3_
FNDA:26,_RNCNvCsiwaishIGMxq_11calypso_cli4main0B3_
FNDA:0,_RNCNvCsiwaishIGMxq_11calypso_cli4mains0_0B3_
FNDA:0,_RNCNvCsiwaishIGMxq_11calypso_cli4mains1_0B3_
FNDA:0,_RNCNvCsiwaishIGMxq_11calypso_cli4mains_0B3_
FNDA:31,_RNvCsiwaishIGMxq_11calypso_cli10build_info
FNDA:1,_RNvCsiwaishIGMxq_11calypso_cli13render_status
FNDA:1,_RNvCsiwaishIGMxq_11calypso_cli14run_doctor_fix
FNDA:1,_RNvCsiwaishIGMxq_11calypso_cli14run_status_tui
FNDA:2,_RNvCsiwaishIGMxq_11calypso_cli15looks_like_path
FNDA:0,_RNvCsiwaishIGMxq_11calypso_cli16run_calypso_init
FNDA:31,_RNvCsiwaishIGMxq_11calypso_cli17extract_path_flag
FNDA:9,_RNvCsiwaishIGMxq_11calypso_cli18run_claude_session
FNDA:1,_RNvCsiwaishIGMxq_11calypso_cli19run_init_state_show
FNDA:0,_RNvCsiwaishIGMxq_11calypso_cli21build_headless_config
FNDA:1,_RNvCsiwaishIGMxq_11calypso_cli21run_template_validate
FNDA:31,_RNvCsiwaishIGMxq_11calypso_cli22extract_headless_flags
FNDA:0,_RNvCsiwaishIGMxq_11calypso_cli22run_state_machine_auto
FNDA:0,_RNvCsiwaishIGMxq_11calypso_cli22run_state_machine_step
FNDA:31,_RNvCsiwaishIGMxq_11calypso_cli4main
FNDA:0,_RINvCs4rgrneSNydo_11calypso_cli19run_status_tui_withpEB2_
FNDA:0,_RNCINvCs4rgrneSNydo_11calypso_cli19run_status_tui_withpE0B4_
FNDA:0,_RNCINvCs4rgrneSNydo_11calypso_cli19run_status_tui_withpEs0_0B4_
FNDA:0,_RNCINvCs4rgrneSNydo_11calypso_cli19run_status_tui_withpEs_0B4_
FNDA:0,_RNCNvCs4rgrneSNydo_11calypso_cli14run_doctor_fix0B3_
FNDA:0,_RNCNvCs4rgrneSNydo_11calypso_cli14run_doctor_fixs_0B3_
FNDA:0,_RNCNvCs4rgrneSNydo_11calypso_cli4main0B3_
FNDA:0,_RNCNvCs4rgrneSNydo_11calypso_cli4mains0_0B3_
FNDA:0,_RNCNvCs4rgrneSNydo_11calypso_cli4mains1_0B3_
FNDA:0,_RNCNvCs4rgrneSNydo_11calypso_cli4mains_0B3_
FNDA:0,_RNvCs4rgrneSNydo_11calypso_cli10build_info
FNDA:0,_RNvCs4rgrneSNydo_11calypso_cli13render_status
FNDA:0,_RNvCs4rgrneSNydo_11calypso_cli14run_doctor_fix
FNDA:0,_RNvCs4rgrneSNydo_11calypso_cli14run_status_tui
FNDA:0,_RNvCs4rgrneSNydo_11calypso_cli16run_calypso_init
FNDA:0,_RNvCs4rgrneSNydo_11calypso_cli18run_claude_session
FNDA:0,_RNvCs4rgrneSNydo_11calypso_cli19run_init_state_show
FNDA:0,_RNvCs4rgrneSNydo_11calypso_cli21run_template_validate
FNDA:0,_RNvCs4rgrneSNydo_11calypso_cli22run_state_machine_auto
FNDA:0,_RNvCs4rgrneSNydo_11calypso_cli22run_state_machine_step
FNDA:0,_RNvCs4rgrneSNydo_11calypso_cli4main
FNDA:45,_RNCNvNtCs4rgrneSNydo_11calypso_cli5tests1s0B5_
FNDA:23,_RNvNtCs4rgrneSNydo_11calypso_cli5tests1s
FNDA:1,_RNvNtCs4rgrneSNydo_11calypso_cli5testss_22config_log_format_text
FNDA:1,_RNvNtCs4rgrneSNydo_11calypso_cli5testss_23config_single_v_is_info
FNDA:1,_RNvNtCs4rgrneSNydo_11calypso_cli5testss_25config_double_vv_is_debug
FNDA:1,_RNvNtCs4rgrneSNydo_11calypso_cli5testss_25headless_flag_is_detected
FNDA:1,_RNvNtCs4rgrneSNydo_11calypso_cli5testss_25headless_flags_empty_args
FNDA:1,_RNvNtCs4rgrneSNydo_11calypso_cli5testss_29headless_with_log_format_json
FNDA:1,_RNvNtCs4rgrneSNydo_11calypso_cli5testss_29headless_with_log_format_text
FNDA:1,_RNvNtCs4rgrneSNydo_11calypso_cli5testss_32config_default_verbosity_is_warn
FNDA:1,_RNvNtCs4rgrneSNydo_11calypso_cli5testss_32looks_like_path_recognises_tilde
FNDA:1,_RNvNtCs4rgrneSNydo_11calypso_cli5testss_33config_default_log_format_is_json
FNDA:1,_RNvNtCs4rgrneSNydo_11calypso_cli5testss_34extract_path_flag_strips_long_flag
FNDA:1,_RNvNtCs4rgrneSNydo_11calypso_cli5testss_35extract_path_flag_strips_short_flag
FNDA:1,_RNvNtCs4rgrneSNydo_11calypso_cli5testss_35looks_like_path_recognises_absolute
FNDA:1,_RNvNtCs4rgrneSNydo_11calypso_cli5testss_35looks_like_path_rejects_subcommands
FNDA:1,_RNvNtCs4rgrneSNydo_11calypso_cli5testss_38headless_not_consumed_after_subcommand
FNDA:1,_RNvNtCs4rgrneSNydo_11calypso_cli5testss_39extract_path_flag_works_with_empty_args
FNDA:1,_RNvNtCs4rgrneSNydo_11calypso_cli5testss_39headless_with_single_v_sets_verbosity_1
FNDA:1,_RNvNtCs4rgrneSNydo_11calypso_cli5testss_39looks_like_path_recognises_dot_relative
FNDA:1,_RNvNtCs4rgrneSNydo_11calypso_cli5testss_40extract_path_flag_flag_at_end_is_ignored
FNDA:1,_RNvNtCs4rgrneSNydo_11calypso_cli5testss_40headless_with_double_vv_sets_verbosity_2
FNDA:1,_RNvNtCs4rgrneSNydo_11calypso_cli5testss_42extract_path_flag_returns_none_when_absent
FNDA:1,_RNvNtCs4rgrneSNydo_11calypso_cli5testss_42headless_with_two_v_flags_sets_verbosity_2
FNDA:1,_RNvNtCs4rgrneSNydo_11calypso_cli5testss_42looks_like_path_accepts_existing_directory
FNDA:1,_RNvNtCs4rgrneSNydo_11calypso_cli5testss_42v_flag_without_headless_stays_in_remaining
FNDA:1,_RNvNtCs4rgrneSNydo_11calypso_cli5testss_46config_env_log_override_captured_when_both_set
FNDA:1,_RNvNtCs4rgrneSNydo_11calypso_cli5testss_46config_env_log_override_none_when_no_verbosity
FNDA:12,_RNvCs4rgrneSNydo_11calypso_cli15looks_like_path
FNDA:5,_RNvCs4rgrneSNydo_11calypso_cli17extract_path_flag
FNDA:7,_RNvCs4rgrneSNydo_11calypso_cli21build_headless_config
FNDA:16,_RNvCs4rgrneSNydo_11calypso_cli22extract_headless_flags
FNF:53
FNH:43
DA:17,31
DA:24,31
DA:25,31
DA:26,31
DA:27,31
DA:28,31
DA:29,31
DA:30,31
DA:32,31
DA:33,31
DA:34,31
DA:38,31
DA:39,31
DA:40,31
DA:43,31
DA:46,31
DA:47,0
DA:48,0
DA:49,0
DA:50,31
DA:52,31
DA:53,13
DA:54,12
DA:55,10
DA:56,5
DA:57,5
DA:58,5
DA:59,0
DA:60,0
DA:61,0
DA:62,0
DA:65,2
DA:66,1
DA:67,1
DA:68,5
DA:69,1
DA:70,2
DA:71,2
DA:72,2
DA:75,10
DA:76,10
DA:78,1
DA:80,1
DA:81,2
DA:82,0
DA:83,0
DA:84,5
DA:85,0
DA:86,0
DA:87,5
DA:88,1
DA:89,1
DA:90,4
DA:91,3
DA:92,3
DA:93,2
DA:94,2
DA:95,2
DA:97,1
DA:98,1
DA:99,1
DA:104,1
DA:105,0
DA:106,0
DA:107,0
DA:108,0
DA:109,0
DA:113,0
DA:114,0
DA:116,0
DA:117,0
DA:118,0
DA:119,0
DA:120,0
DA:125,2
DA:126,0
DA:127,0
DA:128,0
DA:129,0
DA:132,1
DA:133,0
DA:134,0
DA:135,0
DA:136,0
DA:139,9
DA:140,9
DA:142,0
DA:143,0
DA:144,0
DA:145,0
DA:146,0
DA:147,0
DA:148,0
DA:149,0
DA:151,0
DA:152,0
DA:153,0
DA:154,0
DA:155,0
DA:156,0
DA:157,0
DA:158,0
DA:159,0
DA:160,0
DA:161,0
DA:162,0
DA:163,0
DA:164,0
DA:169,9
DA:170,9
DA:171,9
DA:172,9
DA:174,2
DA:175,0
DA:176,0
DA:177,0
DA:179,0
DA:180,0
DA:181,0
DA:182,1
DA:183,1
DA:184,1
DA:186,0
DA:187,0
DA:188,0
DA:190,0
DA:191,0
DA:192,0
DA:193,0
DA:194,0
DA:195,0
DA:200,0
DA:201,0
DA:202,0
DA:203,0
DA:204,0
DA:205,0
DA:210,2
DA:211,0
DA:212,0
DA:213,0
DA:214,0
DA:215,0
DA:216,0
DA:220,2
DA:221,0
DA:222,0
DA:223,0
DA:224,0
DA:225,0
DA:229,1
DA:230,1
DA:231,1
DA:232,0
DA:233,0
DA:234,1
DA:237,2
DA:239,28
DA:242,36
DA:243,36
DA:244,36
DA:245,36
DA:246,117
DA:247,81
DA:248,7
DA:249,7
DA:250,74
DA:251,74
DA:252,74
DA:253,74
DA:255,36
DA:256,36
DA:281,47
DA:285,47
DA:286,47
DA:287,53
DA:288,46
DA:289,13
DA:290,13
DA:291,33
DA:293,33
DA:294,6
DA:295,27
DA:297,27
DA:299,47
DA:302,47
DA:303,34
DA:304,13
DA:306,13
DA:307,13
DA:308,13
DA:310,36
DA:311,23
DA:313,23
DA:314,13
DA:315,13
DA:316,13
DA:317,10
DA:319,10
DA:320,2
DA:321,2
DA:322,2
DA:323,8
DA:325,8
DA:326,5
DA:327,5
DA:328,5
DA:329,3
DA:331,3
DA:332,3
DA:333,3
DA:334,3
DA:335,0
DA:337,0
DA:338,0
DA:341,13
DA:342,47
DA:345,7
DA:347,7
DA:348,4
DA:349,2
DA:350,1
DA:354,7
DA:355,1
DA:356,6
DA:357,0
DA:358,0
DA:359,0
DA:364,7
DA:365,3
DA:367,4
DA:370,7
DA:371,7
DA:372,7
DA:373,7
DA:374,7
DA:375,7
DA:377,0
DA:378,0
DA:379,0
DA:380,0
DA:381,0
DA:382,0
DA:383,0
DA:384,0
DA:386,0
DA:387,0
DA:388,0
DA:391,0
DA:393,1
DA:394,1
DA:395,1
DA:396,0
DA:397,1
DA:398,1
DA:399,1
DA:401,1
DA:403,14
DA:404,14
DA:405,11
DA:406,8
DA:407,7
DA:408,14
DA:410,1
DA:411,1
DA:412,1
DA:414,1
DA:415,1
DA:416,1
DA:417,8
DA:419,1
DA:421,1
DA:422,1
DA:424,0
DA:425,0
DA:426,0
DA:427,0
DA:428,0
DA:429,0
DA:431,0
DA:432,0
DA:434,0
DA:435,0
DA:436,0
DA:437,0
DA:438,0
DA:439,0
DA:440,0
DA:441,0
DA:442,0
DA:444,0
DA:445,0
DA:446,0
DA:452,0
DA:454,1
DA:455,1
DA:456,1
DA:457,1
DA:458,1
DA:459,1
DA:460,1
DA:461,0
DA:462,0
DA:463,0
DA:464,0
DA:467,0
DA:468,0
DA:469,0
DA:472,1
DA:474,1
DA:475,1
DA:476,1
DA:477,1
DA:478,1
DA:479,1
DA:481,1
DA:482,1
DA:483,1
DA:485,1
DA:486,1
DA:487,1
DA:489,1
DA:490,1
DA:491,1
DA:492,1
DA:493,1
DA:494,1
DA:495,1
DA:497,9
DA:498,9
DA:500,9
DA:501,0
DA:502,0
DA:503,0
DA:505,9
DA:507,4
DA:508,4
DA:509,4
DA:511,4
DA:512,4
DA:513,4
DA:514,0
DA:515,4
DA:516,4
DA:517,4
DA:518,4
DA:520,3
DA:521,3
DA:522,3
DA:523,3
DA:524,3
DA:525,3
DA:527,1
DA:528,1
DA:529,1
DA:530,1
DA:532,1
DA:533,1
DA:534,1
DA:535,1
DA:536,1
DA:538,0
DA:539,0
DA:540,0
DA:544,4
DA:546,0
DA:551,0
DA:552,0
DA:553,0
DA:554,0
DA:555,0
DA:556,0
DA:557,0
DA:558,0
DA:560,0
DA:561,0
DA:562,0
DA:563,0
DA:564,0
DA:565,0
DA:566,0
DA:567,0
DA:568,0
DA:569,0
DA:570,0
DA:571,0
DA:572,0
DA:573,0
DA:574,0
DA:575,0
DA:577,0
DA:578,0
DA:579,0
DA:581,0
DA:582,0
DA:583,0
DA:587,0
DA:589,0
DA:595,0
DA:596,0
DA:597,0
DA:598,0
DA:599,0
DA:600,0
DA:601,0
DA:602,0
DA:605,0
DA:606,0
DA:607,0
DA:608,0
DA:609,0
DA:610,0
DA:611,0
DA:612,0
DA:616,0
DA:617,0
DA:618,0
DA:619,0
DA:620,0
DA:621,0
DA:623,0
DA:624,0
DA:625,0
DA:626,0
DA:628,0
DA:629,0
DA:631,0
DA:632,0
DA:633,0
DA:634,0
DA:635,0
DA:636,0
DA:637,0
DA:638,0
DA:639,0
DA:640,0
DA:641,0
DA:642,0
DA:643,0
DA:647,0
DA:660,1
DA:661,1
DA:662,1
DA:663,1
DA:664,1
DA:667,1
DA:669,1
DA:670,1
DA:671,1
DA:672,1
DA:673,1
DA:676,1
DA:677,1
DA:678,1
DA:679,1
DA:680,1
DA:683,1
DA:684,1
DA:685,1
DA:686,1
DA:687,1
DA:690,1
DA:691,1
DA:692,1
DA:693,1
DA:694,1
DA:697,1
DA:698,1
DA:699,1
DA:700,1
DA:703,1
DA:704,1
DA:705,1
DA:706,1
DA:709,1
DA:710,1
DA:711,1
DA:712,1
DA:713,1
DA:714,1
DA:717,1
DA:718,1
DA:719,1
DA:720,1
DA:721,1
DA:726,1
DA:727,1
DA:728,1
DA:729,1
DA:730,1
DA:733,1
DA:734,1
DA:735,1
DA:736,1
DA:737,1
DA:740,1
DA:741,1
DA:742,1
DA:743,1
DA:744,1
DA:747,1
DA:748,1
DA:749,1
DA:750,1
DA:751,1
DA:754,1
DA:755,1
DA:756,1
DA:757,1
DA:758,1
DA:761,1
DA:762,1
DA:763,1
DA:764,1
DA:765,1
DA:768,1
DA:770,1
DA:773,1
DA:774,1
DA:775,1
DA:777,1
DA:778,1
DA:779,1
DA:783,1
DA:784,0
DA:785,1
DA:788,1
DA:793,1
DA:794,1
DA:795,1
DA:796,1
DA:797,1
DA:800,1
DA:801,1
DA:802,1
DA:803,1
DA:806,1
DA:807,1
DA:808,1
DA:811,1
DA:812,1
DA:813,1
DA:814,1
DA:815,1
DA:816,1
DA:817,1
DA:820,1
DA:821,1
DA:822,1
DA:823,1
DA:825,1
DA:828,1
DA:829,1
DA:830,1
DA:831,1
DA:832,1
DA:833,1
DA:836,1
DA:837,1
DA:838,1
DA:839,1
DA:840,1
DA:841,1
DA:844,1
DA:846,1
DA:847,1
DA:848,1
DA:849,1
DA:850,1
DA:853,1
DA:854,1
DA:855,1
DA:856,1
DA:857,1
DA:858,1
DA:861,1
DA:862,1
DA:863,1
DA:864,1
DA:865,1
DA:867,23
DA:868,45
DA:869,23
BRF:0
BRH:0
LF:593
LH:369
end_of_record
SF:/home/lucas/calypso/.claude/worktrees/agent-a62ed768/cli/src/policy.rs
FN:49,_RINvNtCsadPz79N6wDl_11calypso_cli6policy20evaluate_policy_gateNtB2_21HostPolicyEnvironmentEB4_
FN:32,_RINvNtCsadPz79N6wDl_11calypso_cli6policy23collect_policy_evidenceNtB2_21HostPolicyEnvironmentEB4_
FN:60,_RNCINvNtCsadPz79N6wDl_11calypso_cli6policy20evaluate_policy_gateNtB4_21HostPolicyEnvironmentE0B6_
FN:70,_RNCINvNtCsadPz79N6wDl_11calypso_cli6policy20evaluate_policy_gateNtB4_21HostPolicyEnvironmentEs0_0B6_
FN:69,_RNCINvNtCsadPz79N6wDl_11calypso_cli6policy20evaluate_policy_gateNtB4_21HostPolicyEnvironmentEs_0B6_
FN:41,_RNCINvNtCsadPz79N6wDl_11calypso_cli6policy23collect_policy_evidenceNtB4_21HostPolicyEnvironmentE0B6_
FN:88,_RNCNCNvNtCsadPz79N6wDl_11calypso_cli6policy20branch_contains_main00B7_
FN:83,_RNCNvNtCsadPz79N6wDl_11calypso_cli6policy20branch_contains_main0B5_
FN:77,_RNvNtCsadPz79N6wDl_11calypso_cli6policy20branch_contains_main
FN:19,_RNvXNtCsadPz79N6wDl_11calypso_cli6policyNtB2_21HostPolicyEnvironmentNtB2_17PolicyEnvironment11file_exists
FN:23,_RNvXNtCsadPz79N6wDl_11calypso_cli6policyNtB2_21HostPolicyEnvironmentNtB2_17PolicyEnvironment13file_modified
FN:27,_RNvXNtCsadPz79N6wDl_11calypso_cli6policyNtB2_21HostPolicyEnvironmentNtB2_17PolicyEnvironment18is_main_compatible
FN:114,_RNvMNtNtCsk43tzqYvrEx_11calypso_cli6policy5testsNtB2_21FakePolicyEnvironment25with_main_compatible_root
FN:108,_RNvMNtNtCsk43tzqYvrEx_11calypso_cli6policy5testsNtB2_21FakePolicyEnvironment9with_file
FN:134,_RNvNtNtCsk43tzqYvrEx_11calypso_cli6policy5tests15sample_template
FN:280,_RNvNtNtCsk43tzqYvrEx_11calypso_cli6policy5testss_56evaluate_policy_gate_returns_false_for_unknown_evaluator
FN:297,_RNvNtNtCsk43tzqYvrEx_11calypso_cli6policy5testss_65policy_evidence_fails_when_plan_or_workflows_are_missing_or_stale
FN:212,_RNvNtNtCsk43tzqYvrEx_11calypso_cli6policy5testss_71policy_evidence_marks_planning_and_workflow_rules_from_filesystem_state
FN:262,_RNvNtNtCsk43tzqYvrEx_11calypso_cli6policy5testss_77implementation_plan_fresh_returns_false_when_primary_has_no_modification_time
FN:121,_RNvXs_NtNtCsk43tzqYvrEx_11calypso_cli6policy5testsNtB4_21FakePolicyEnvironmentNtB6_17PolicyEnvironment11file_exists
FN:125,_RNvXs_NtNtCsk43tzqYvrEx_11calypso_cli6policy5testsNtB4_21FakePolicyEnvironmentNtB6_17PolicyEnvironment13file_modified
FN:129,_RNvXs_NtNtCsk43tzqYvrEx_11calypso_cli6policy5testsNtB4_21FakePolicyEnvironmentNtB6_17PolicyEnvironment18is_main_compatible
FN:77,_RNvNtCsk43tzqYvrEx_11calypso_cli6policy20branch_contains_main
FN:19,_RNvXNtCsk43tzqYvrEx_11calypso_cli6policyNtB2_21HostPolicyEnvironmentNtB2_17PolicyEnvironment11file_exists
FN:23,_RNvXNtCsk43tzqYvrEx_11calypso_cli6policyNtB2_21HostPolicyEnvironmentNtB2_17PolicyEnvironment13file_modified
FN:27,_RNvXNtCsk43tzqYvrEx_11calypso_cli6policyNtB2_21HostPolicyEnvironmentNtB2_17PolicyEnvironment18is_main_compatible
FN:49,_RINvNtCsk43tzqYvrEx_11calypso_cli6policy20evaluate_policy_gateNtB2_21HostPolicyEnvironmentEB4_
FN:49,_RINvNtCsk43tzqYvrEx_11calypso_cli6policy20evaluate_policy_gateNtNtB2_5tests21FakePolicyEnvironmentEB4_
FN:32,_RINvNtCsk43tzqYvrEx_11calypso_cli6policy23collect_policy_evidenceNtB2_21HostPolicyEnvironmentEB4_
FN:32,_RINvNtCsk43tzqYvrEx_11calypso_cli6policy23collect_policy_evidenceNtNtB2_5tests21FakePolicyEnvironmentEB4_
FN:60,_RNCINvNtCsk43tzqYvrEx_11calypso_cli6policy20evaluate_policy_gateNtB4_21HostPolicyEnvironmentE0B6_
FN:70,_RNCINvNtCsk43tzqYvrEx_11calypso_cli6policy20evaluate_policy_gateNtB4_21HostPolicyEnvironmentEs0_0B6_
FN:69,_RNCINvNtCsk43tzqYvrEx_11calypso_cli6policy20evaluate_policy_gateNtB4_21HostPolicyEnvironmentEs_0B6_
FN:60,_RNCINvNtCsk43tzqYvrEx_11calypso_cli6policy20evaluate_policy_gateNtNtB4_5tests21FakePolicyEnvironmentE0B6_
FN:70,_RNCINvNtCsk43tzqYvrEx_11calypso_cli6policy20evaluate_policy_gateNtNtB4_5tests21FakePolicyEnvironmentEs0_0B6_
FN:69,_RNCINvNtCsk43tzqYvrEx_11calypso_cli6policy20evaluate_policy_gateNtNtB4_5tests21FakePolicyEnvironmentEs_0B6_
FN:41,_RNCINvNtCsk43tzqYvrEx_11calypso_cli6policy23collect_policy_evidenceNtB4_21HostPolicyEnvironmentE0B6_
FN:41,_RNCINvNtCsk43tzqYvrEx_11calypso_cli6policy23collect_policy_evidenceNtNtB4_5tests21FakePolicyEnvironmentE0B6_
FN:88,_RNCNCNvNtCsk43tzqYvrEx_11calypso_cli6policy20branch_contains_main00B7_
FN:83,_RNCNvNtCsk43tzqYvrEx_11calypso_cli6policy20branch_contains_main0B5_
FNDA:10,_RINvNtCsadPz79N6wDl_11calypso_cli6policy20evaluate_policy_gateNtB2_21HostPolicyEnvironmentEB4_
FNDA:2,_RINvNtCsadPz79N6wDl_11calypso_cli6policy23collect_policy_evidenceNtB2_21HostPolicyEnvironmentEB4_
FNDA:11,_RNCINvNtCsadPz79N6wDl_11calypso_cli6policy20evaluate_policy_gateNtB4_21HostPolicyEnvironmentE0B6_
FNDA:0,_RNCINvNtCsadPz79N6wDl_11calypso_cli6policy20evaluate_policy_gateNtB4_21HostPolicyEnvironmentEs0_0B6_
FNDA:1,_RNCINvNtCsadPz79N6wDl_11calypso_cli6policy20evaluate_policy_gateNtB4_21HostPolicyEnvironmentEs_0B6_
FNDA:10,_RNCINvNtCsadPz79N6wDl_11calypso_cli6policy23collect_policy_evidenceNtB4_21HostPolicyEnvironmentE0B6_
FNDA:3,_RNCNCNvNtCsadPz79N6wDl_11calypso_cli6policy20branch_contains_main00B7_
FNDA:3,_RNCNvNtCsadPz79N6wDl_11calypso_cli6policy20branch_contains_main0B5_
FNDA:2,_RNvNtCsadPz79N6wDl_11calypso_cli6policy20branch_contains_main
FNDA:11,_RNvXNtCsadPz79N6wDl_11calypso_cli6policyNtB2_21HostPolicyEnvironmentNtB2_17PolicyEnvironment11file_exists
FNDA:3,_RNvXNtCsadPz79N6wDl_11calypso_cli6policyNtB2_21HostPolicyEnvironmentNtB2_17PolicyEnvironment13file_modified
FNDA:2,_RNvXNtCsadPz79N6wDl_11calypso_cli6policyNtB2_21HostPolicyEnvironmentNtB2_17PolicyEnvironment18is_main_compatible
FNDA:1,_RNvMNtNtCsk43tzqYvrEx_11calypso_cli6policy5testsNtB2_21FakePolicyEnvironment25with_main_compatible_root
FNDA:8,_RNvMNtNtCsk43tzqYvrEx_11calypso_cli6policy5testsNtB2_21FakePolicyEnvironment9with_file
FNDA:3,_RNvNtNtCsk43tzqYvrEx_11calypso_cli6policy5tests15sample_template
FNDA:1,_RNvNtNtCsk43tzqYvrEx_11calypso_cli6policy5testss_56evaluate_policy_gate_returns_false_for_unknown_evaluator
FNDA:1,_RNvNtNtCsk43tzqYvrEx_11calypso_cli6policy5testss_65policy_evidence_fails_when_plan_or_workflows_are_missing_or_stale
FNDA:1,_RNvNtNtCsk43tzqYvrEx_11calypso_cli6policy5testss_71policy_evidence_marks_planning_and_workflow_rules_from_filesystem_state
FNDA:1,_RNvNtNtCsk43tzqYvrEx_11calypso_cli6policy5testss_77implementation_plan_fresh_returns_false_when_primary_has_no_modification_time
FNDA:10,_RNvXs_NtNtCsk43tzqYvrEx_11calypso_cli6policy5testsNtB4_21FakePolicyEnvironmentNtB6_17PolicyEnvironment11file_exists
FNDA:5,_RNvXs_NtNtCsk43tzqYvrEx_11calypso_cli6policy5testsNtB4_21FakePolicyEnvironmentNtB6_17PolicyEnvironment13file_modified
FNDA:3,_RNvXs_NtNtCsk43tzqYvrEx_11calypso_cli6policy5testsNtB4_21FakePolicyEnvironmentNtB6_17PolicyEnvironment18is_main_compatible
FNDA:0,_RNvNtCsk43tzqYvrEx_11calypso_cli6policy20branch_contains_main
FNDA:0,_RNvXNtCsk43tzqYvrEx_11calypso_cli6policyNtB2_21HostPolicyEnvironmentNtB2_17PolicyEnvironment11file_exists
FNDA:0,_RNvXNtCsk43tzqYvrEx_11calypso_cli6policyNtB2_21HostPolicyEnvironmentNtB2_17PolicyEnvironment13file_modified
FNDA:0,_RNvXNtCsk43tzqYvrEx_11calypso_cli6policyNtB2_21HostPolicyEnvironmentNtB2_17PolicyEnvironment18is_main_compatible
FNDA:0,_RINvNtCsk43tzqYvrEx_11calypso_cli6policy20evaluate_policy_gateNtB2_21HostPolicyEnvironmentEB4_
FNDA:16,_RINvNtCsk43tzqYvrEx_11calypso_cli6policy20evaluate_policy_gateNtNtB2_5tests21FakePolicyEnvironmentEB4_
FNDA:0,_RINvNtCsk43tzqYvrEx_11calypso_cli6policy23collect_policy_evidenceNtB2_21HostPolicyEnvironmentEB4_
FNDA:3,_RINvNtCsk43tzqYvrEx_11calypso_cli6policy23collect_policy_evidenceNtNtB2_5tests21FakePolicyEnvironmentEB4_
FNDA:0,_RNCINvNtCsk43tzqYvrEx_11calypso_cli6policy20evaluate_policy_gateNtB4_21HostPolicyEnvironmentE0B6_
FNDA:0,_RNCINvNtCsk43tzqYvrEx_11calypso_cli6policy20evaluate_policy_gateNtB4_21HostPolicyEnvironmentEs0_0B6_
FNDA:0,_RNCINvNtCsk43tzqYvrEx_11calypso_cli6policy20evaluate_policy_gateNtB4_21HostPolicyEnvironmentEs_0B6_
FNDA:10,_RNCINvNtCsk43tzqYvrEx_11calypso_cli6policy20evaluate_policy_gateNtNtB4_5tests21FakePolicyEnvironmentE0B6_
FNDA:2,_RNCINvNtCsk43tzqYvrEx_11calypso_cli6policy20evaluate_policy_gateNtNtB4_5tests21FakePolicyEnvironmentEs0_0B6_
FNDA:2,_RNCINvNtCsk43tzqYvrEx_11calypso_cli6policy20evaluate_policy_gateNtNtB4_5tests21FakePolicyEnvironmentEs_0B6_
FNDA:0,_RNCINvNtCsk43tzqYvrEx_11calypso_cli6policy23collect_policy_evidenceNtB4_21HostPolicyEnvironmentE0B6_
FNDA:15,_RNCINvNtCsk43tzqYvrEx_11calypso_cli6policy23collect_policy_evidenceNtNtB4_5tests21FakePolicyEnvironmentE0B6_
FNDA:0,_RNCNCNvNtCsk43tzqYvrEx_11calypso_cli6policy20branch_contains_main00B7_
FNDA:0,_RNCNvNtCsk43tzqYvrEx_11calypso_cli6policy20branch_contains_main0B5_
FNF:22
FNH:22
DA:19,11
DA:20,11
DA:21,11
DA:23,3
DA:24,3
DA:25,3
DA:27,2
DA:28,2
DA:29,2
DA:32,5
DA:33,5
DA:34,5
DA:35,5
DA:36,5
DA:37,5
DA:38,5
DA:39,5
DA:40,5
DA:41,25
DA:42,25
DA:43,25
DA:44,25
DA:46,25
DA:47,5
DA:49,26
DA:50,26
DA:51,26
DA:52,26
DA:53,26
DA:54,26
DA:55,26
DA:56,21
DA:57,16
DA:58,15
DA:59,15
DA:60,21
DA:61,11
DA:62,5
DA:63,5
DA:64,2
DA:67,3
DA:68,3
DA:69,3
DA:70,3
DA:72,6
DA:73,1
DA:75,26
DA:77,2
DA:78,2
DA:79,2
DA:80,2
DA:81,2
DA:82,2
DA:83,3
DA:84,3
DA:85,3
DA:86,3
DA:87,3
DA:88,3
DA:89,3
DA:90,2
DA:108,8
DA:109,8
DA:110,8
DA:111,8
DA:112,8
DA:114,1
DA:115,1
DA:116,1
DA:117,1
DA:121,10
DA:122,10
DA:123,10
DA:125,5
DA:126,5
DA:127,5
DA:129,3
DA:130,3
DA:131,3
DA:134,3
DA:135,3
DA:136,3
DA:137,3
DA:138,3
DA:139,3
DA:140,3
DA:141,3
DA:142,3
DA:143,3
DA:144,3
DA:145,3
DA:146,3
DA:147,3
DA:148,3
DA:149,3
DA:150,3
DA:151,3
DA:152,3
DA:153,3
DA:154,3
DA:155,3
DA:156,3
DA:157,3
DA:158,3
DA:159,3
DA:160,3
DA:161,3
DA:162,3
DA:163,3
DA:164,3
DA:165,3
DA:166,3
DA:167,3
DA:168,3
DA:169,3
DA:170,3
DA:171,3
DA:172,3
DA:173,3
DA:174,3
DA:175,3
DA:176,3
DA:177,3
DA:178,3
DA:179,3
DA:180,3
DA:181,3
DA:182,3
DA:183,3
DA:184,3
DA:185,3
DA:186,3
DA:187,3
DA:188,3
DA:189,3
DA:190,3
DA:191,3
DA:192,3
DA:193,3
DA:194,3
DA:195,3
DA:196,3
DA:197,3
DA:198,3
DA:199,3
DA:200,3
DA:201,3
DA:202,3
DA:203,3
DA:204,3
DA:205,3
DA:206,3
DA:208,3
DA:209,3
DA:212,1
DA:213,1
DA:214,1
DA:215,1
DA:216,1
DA:217,1
DA:219,1
DA:220,1
DA:221,1
DA:223,1
DA:224,1
DA:225,1
DA:227,1
DA:228,1
DA:229,1
DA:231,1
DA:232,1
DA:233,1
DA:235,1
DA:237,1
DA:239,1
DA:240,1
DA:243,1
DA:244,1
DA:247,1
DA:248,1
DA:251,1
DA:252,1
DA:255,1
DA:256,1
DA:259,1
DA:262,1
DA:263,1
DA:266,1
DA:267,1
DA:268,1
DA:271,1
DA:273,1
DA:274,1
DA:277,1
DA:280,1
DA:283,1
DA:284,1
DA:285,1
DA:286,1
DA:287,1
DA:288,1
DA:289,1
DA:290,1
DA:291,1
DA:292,1
DA:293,1
DA:294,1
DA:297,1
DA:298,1
DA:299,1
DA:300,1
DA:301,1
DA:302,1
DA:304,1
DA:305,1
DA:306,1
DA:309,1
DA:311,1
DA:312,1
DA:315,1
DA:316,1
DA:319,1
DA:320,1
DA:323,1
DA:324,1
DA:327,1
DA:328,1
DA:331,1
BRF:0
BRH:0
LF:234
LH:234
end_of_record
SF:/home/lucas/calypso/.claude/worktrees/agent-a62ed768/cli/src/pr_checklist.rs
FN:55,_RNCNvNtCsadPz79N6wDl_11calypso_cli12pr_checklist20render_gates_section0B5_
FN:57,_RNCNvNtCsadPz79N6wDl_11calypso_cli12pr_checklist20render_gates_sections0_0B5_
FN:56,_RNCNvNtCsadPz79N6wDl_11calypso_cli12pr_checklist20render_gates_sections_0B5_
FN:9,_RNvNtCsadPz79N6wDl_11calypso_cli12pr_checklist12seed_pr_body
FN:26,_RNvNtCsadPz79N6wDl_11calypso_cli12pr_checklist14update_pr_body
FN:45,_RNvNtCsadPz79N6wDl_11calypso_cli12pr_checklist20render_gates_section
FN:78,_RNvNtNtCsk43tzqYvrEx_11calypso_cli12pr_checklist5tests16minimal_template
FN:132,_RNvNtNtCsk43tzqYvrEx_11calypso_cli12pr_checklist5tests19pending_gate_groups
FN:108,_RNvNtNtCsk43tzqYvrEx_11calypso_cli12pr_checklist5tests37minimal_template_with_checklist_label
FN:218,_RNvNtNtCsk43tzqYvrEx_11calypso_cli12pr_checklist5testss_30manual_gate_renders_with_tilde
FN:200,_RNvNtNtCsk43tzqYvrEx_11calypso_cli12pr_checklist5testss_31passing_gate_renders_as_checked
FN:281,_RNvNtNtCsk43tzqYvrEx_11calypso_cli12pr_checklist5testss_33failing_gate_renders_as_unchecked
FN:166,_RNvNtNtCsk43tzqYvrEx_11calypso_cli12pr_checklist5testss_39seed_pr_body_includes_required_sections
FN:154,_RNvNtNtCsk43tzqYvrEx_11calypso_cli12pr_checklist5testss_41seed_pr_body_produces_all_unchecked_gates
FN:181,_RNvNtNtCsk43tzqYvrEx_11calypso_cli12pr_checklist5testss_42update_pr_body_replaces_only_gates_section
FN:236,_RNvNtNtCsk43tzqYvrEx_11calypso_cli12pr_checklist5testss_44gate_with_pr_checklist_label_uses_that_label
FN:272,_RNvNtNtCsk43tzqYvrEx_11calypso_cli12pr_checklist5testss_48update_pr_body_without_markers_returns_unchanged
FN:255,_RNvNtNtCsk43tzqYvrEx_11calypso_cli12pr_checklist5testss_49update_pr_body_is_noop_when_gate_states_unchanged
FN:9,_RNvNtCsk43tzqYvrEx_11calypso_cli12pr_checklist12seed_pr_body
FN:26,_RNvNtCsk43tzqYvrEx_11calypso_cli12pr_checklist14update_pr_body
FN:45,_RNvNtCsk43tzqYvrEx_11calypso_cli12pr_checklist20render_gates_section
FN:55,_RNCNvNtCsk43tzqYvrEx_11calypso_cli12pr_checklist20render_gates_section0B5_
FN:57,_RNCNvNtCsk43tzqYvrEx_11calypso_cli12pr_checklist20render_gates_sections0_0B5_
FN:56,_RNCNvNtCsk43tzqYvrEx_11calypso_cli12pr_checklist20render_gates_sections_0B5_
FNDA:413,_RNCNvNtCsadPz79N6wDl_11calypso_cli12pr_checklist20render_gates_section0B5_
FNDA:86,_RNCNvNtCsadPz79N6wDl_11calypso_cli12pr_checklist20render_gates_sections0_0B5_
FNDA:991,_RNCNvNtCsadPz79N6wDl_11calypso_cli12pr_checklist20render_gates_sections_0B5_
FNDA:9,_RNvNtCsadPz79N6wDl_11calypso_cli12pr_checklist12seed_pr_body
FNDA:3,_RNvNtCsadPz79N6wDl_11calypso_cli12pr_checklist14update_pr_body
FNDA:11,_RNvNtCsadPz79N6wDl_11calypso_cli12pr_checklist20render_gates_section
FNDA:8,_RNvNtNtCsk43tzqYvrEx_11calypso_cli12pr_checklist5tests16minimal_template
FNDA:5,_RNvNtNtCsk43tzqYvrEx_11calypso_cli12pr_checklist5tests19pending_gate_groups
FNDA:1,_RNvNtNtCsk43tzqYvrEx_11calypso_cli12pr_checklist5tests37minimal_template_with_checklist_label
FNDA:1,_RNvNtNtCsk43tzqYvrEx_11calypso_cli12pr_checklist5testss_30manual_gate_renders_with_tilde
FNDA:1,_RNvNtNtCsk43tzqYvrEx_11calypso_cli12pr_checklist5testss_31passing_gate_renders_as_checked
FNDA:1,_RNvNtNtCsk43tzqYvrEx_11calypso_cli12pr_checklist5testss_33failing_gate_renders_as_unchecked
FNDA:1,_RNvNtNtCsk43tzqYvrEx_11calypso_cli12pr_checklist5testss_39seed_pr_body_includes_required_sections
FNDA:1,_RNvNtNtCsk43tzqYvrEx_11calypso_cli12pr_checklist5testss_41seed_pr_body_produces_all_unchecked_gates
FNDA:1,_RNvNtNtCsk43tzqYvrEx_11calypso_cli12pr_checklist5testss_42update_pr_body_replaces_only_gates_section
FNDA:1,_RNvNtNtCsk43tzqYvrEx_11calypso_cli12pr_checklist5testss_44gate_with_pr_checklist_label_uses_that_label
FNDA:1,_RNvNtNtCsk43tzqYvrEx_11calypso_cli12pr_checklist5testss_48update_pr_body_without_markers_returns_unchanged
FNDA:1,_RNvNtNtCsk43tzqYvrEx_11calypso_cli12pr_checklist5testss_49update_pr_body_is_noop_when_gate_states_unchanged
FNDA:7,_RNvNtCsk43tzqYvrEx_11calypso_cli12pr_checklist12seed_pr_body
FNDA:3,_RNvNtCsk43tzqYvrEx_11calypso_cli12pr_checklist14update_pr_body
FNDA:9,_RNvNtCsk43tzqYvrEx_11calypso_cli12pr_checklist20render_gates_section
FNDA:14,_RNCNvNtCsk43tzqYvrEx_11calypso_cli12pr_checklist20render_gates_section0B5_
FNDA:14,_RNCNvNtCsk43tzqYvrEx_11calypso_cli12pr_checklist20render_gates_sections0_0B5_
FNDA:20,_RNCNvNtCsk43tzqYvrEx_11calypso_cli12pr_checklist20render_gates_sections_0B5_
FNF:18
FNH:18
DA:9,16
DA:10,16
DA:11,16
DA:12,16
DA:13,16
DA:14,16
DA:15,16
DA:17,16
DA:18,16
DA:20,16
DA:26,6
DA:27,6
DA:28,6
DA:29,6
DA:30,6
DA:31,6
DA:32,2
DA:34,4
DA:35,0
DA:38,4
DA:39,4
DA:40,4
DA:42,4
DA:43,6
DA:45,20
DA:46,20
DA:48,69
DA:49,49
DA:50,149
DA:51,100
DA:52,100
DA:53,100
DA:54,100
DA:55,427
DA:56,1011
DA:57,100
DA:58,100
DA:60,100
DA:61,4
DA:62,2
DA:63,94
DA:65,100
DA:69,20
DA:70,20
DA:78,8
DA:79,8
DA:80,8
DA:81,8
DA:82,8
DA:83,8
DA:84,8
DA:85,8
DA:86,8
DA:87,8
DA:88,8
DA:89,8
DA:90,8
DA:91,8
DA:92,8
DA:93,8
DA:94,8
DA:95,8
DA:96,8
DA:97,8
DA:98,8
DA:99,8
DA:100,8
DA:101,8
DA:102,8
DA:103,8
DA:104,8
DA:105,8
DA:106,8
DA:108,1
DA:109,1
DA:110,1
DA:111,1
DA:112,1
DA:113,1
DA:114,1
DA:115,1
DA:116,1
DA:117,1
DA:118,1
DA:119,1
DA:120,1
DA:121,1
DA:122,1
DA:123,1
DA:124,1
DA:125,1
DA:126,1
DA:127,1
DA:128,1
DA:129,1
DA:130,1
DA:132,5
DA:133,5
DA:134,5
DA:135,5
DA:136,5
DA:137,5
DA:138,5
DA:139,5
DA:140,5
DA:141,5
DA:142,5
DA:143,5
DA:144,5
DA:145,5
DA:146,5
DA:147,5
DA:148,5
DA:149,5
DA:150,5
DA:151,5
DA:154,1
DA:155,1
DA:156,1
DA:157,1
DA:159,1
DA:160,1
DA:161,1
DA:162,1
DA:163,1
DA:166,1
DA:167,1
DA:168,1
DA:169,1
DA:171,1
DA:172,1
DA:173,1
DA:174,1
DA:175,1
DA:176,1
DA:177,1
DA:178,1
DA:181,1
DA:182,1
DA:183,1
DA:184,1
DA:187,1
DA:188,1
DA:190,1
DA:192,1
DA:193,1
DA:194,1
DA:195,1
DA:196,1
DA:197,1
DA:200,1
DA:201,1
DA:202,1
DA:203,1
DA:204,1
DA:205,1
DA:206,1
DA:207,1
DA:208,1
DA:209,1
DA:210,1
DA:211,1
DA:213,1
DA:214,1
DA:215,1
DA:218,1
DA:219,1
DA:220,1
DA:221,1
DA:222,1
DA:223,1
DA:224,1
DA:225,1
DA:226,1
DA:227,1
DA:228,1
DA:229,1
DA:231,1
DA:232,1
DA:233,1
DA:236,1
DA:237,1
DA:238,1
DA:239,1
DA:240,1
DA:241,1
DA:242,1
DA:243,1
DA:244,1
DA:245,1
DA:246,1
DA:247,1
DA:249,1
DA:250,1
DA:251,1
DA:252,1
DA:255,1
DA:256,1
DA:257,1
DA:258,1
DA:259,1
DA:261,1
DA:262,1
DA:263,1
DA:265,1
DA:266,1
DA:267,1
DA:269,1
DA:272,1
DA:273,1
DA:274,1
DA:275,1
DA:276,1
DA:277,1
DA:278,1
DA:281,1
DA:282,1
DA:283,1
DA:284,1
DA:285,1
DA:286,1
DA:287,1
DA:288,1
DA:289,1
DA:290,1
DA:291,1
DA:292,1
DA:294,1
DA:295,1
DA:296,1
BRF:0
BRH:0
LF:233
LH:232
end_of_record
SF:/home/lucas/calypso/.claude/worktrees/agent-a62ed768/cli/src/runtime.rs
FN:152,_RINvNtCsadPz79N6wDl_11calypso_cli7runtime26load_or_initialize_runtimeNtB2_24GhCliPullRequestResolverEB4_
FN:152,_RINvNtCsadPz79N6wDl_11calypso_cli7runtime26load_or_initialize_runtimeNtNtB4_13feature_start25StaticPullRequestResolverEB4_
FN:113,_RINvNtCsadPz79N6wDl_11calypso_cli7runtime27discover_repository_contextNtB2_24GhCliPullRequestResolverEB4_
FN:113,_RINvNtCsadPz79N6wDl_11calypso_cli7runtime27discover_repository_contextNtNtB4_13feature_start25StaticPullRequestResolverEB4_
FN:130,_RNCINvNtCsadPz79N6wDl_11calypso_cli7runtime27discover_repository_contextNtB4_24GhCliPullRequestResolverE0B6_
FN:130,_RNCINvNtCsadPz79N6wDl_11calypso_cli7runtime27discover_repository_contextNtNtB6_13feature_start25StaticPullRequestResolverE0B6_
FN:98,_RNCNvXs_NtCsadPz79N6wDl_11calypso_cli7runtimeNtB6_24GhCliPullRequestResolverNtB6_19PullRequestResolver18resolve_for_branch0B8_
FN:43,_RNvMNtCsadPz79N6wDl_11calypso_cli7runtimeNtB2_12RuntimeState4save
FN:215,_RNvNtCsadPz79N6wDl_11calypso_cli7runtime10git_output
FN:211,_RNvNtCsadPz79N6wDl_11calypso_cli7runtime15state_file_path
FN:148,_RNvNtCsadPz79N6wDl_11calypso_cli7runtime34load_or_initialize_current_runtime
FN:107,_RNvNtCsadPz79N6wDl_11calypso_cli7runtime35discover_current_repository_context
FN:253,_RNvXs0_NtCsadPz79N6wDl_11calypso_cli7runtimeNtB5_12RuntimeErrorNtNtCs3XFJfFEDSOQ_4core3fmt7Display3fmt
FN:66,_RNvXs_NtCsadPz79N6wDl_11calypso_cli7runtimeNtB4_24GhCliPullRequestResolverNtB4_19PullRequestResolver18resolve_for_branch
FN:152,_RINvNtCsk43tzqYvrEx_11calypso_cli7runtime26load_or_initialize_runtimepEB4_
FN:113,_RINvNtCsk43tzqYvrEx_11calypso_cli7runtime27discover_repository_contextpEB4_
FN:130,_RNCINvNtCsk43tzqYvrEx_11calypso_cli7runtime27discover_repository_contextpE0B6_
FN:98,_RNCNvXs_NtCsk43tzqYvrEx_11calypso_cli7runtimeNtB6_24GhCliPullRequestResolverNtB6_19PullRequestResolver18resolve_for_branch0B8_
FN:43,_RNvMNtCsk43tzqYvrEx_11calypso_cli7runtimeNtB2_12RuntimeState4save
FN:215,_RNvNtCsk43tzqYvrEx_11calypso_cli7runtime10git_output
FN:211,_RNvNtCsk43tzqYvrEx_11calypso_cli7runtime15state_file_path
FN:148,_RNvNtCsk43tzqYvrEx_11calypso_cli7runtime34load_or_initialize_current_runtime
FN:107,_RNvNtCsk43tzqYvrEx_11calypso_cli7runtime35discover_current_repository_context
FN:253,_RNvXs0_NtCsk43tzqYvrEx_11calypso_cli7runtimeNtB5_12RuntimeErrorNtNtCs3XFJfFEDSOQ_4core3fmt7Display3fmt
FN:66,_RNvXs_NtCsk43tzqYvrEx_11calypso_cli7runtimeNtB4_24GhCliPullRequestResolverNtB4_19PullRequestResolver18resolve_for_branch
FN:152,_RINvNtCsadPz79N6wDl_11calypso_cli7runtime26load_or_initialize_runtimeNtCs9EmdtP2hbro_7runtime23FakePullRequestResolverEB17_
FN:113,_RINvNtCsadPz79N6wDl_11calypso_cli7runtime27discover_repository_contextNtCs9EmdtP2hbro_7runtime23FakePullRequestResolverEB18_
FN:130,_RNCINvNtCsadPz79N6wDl_11calypso_cli7runtime27discover_repository_contextNtCs9EmdtP2hbro_7runtime23FakePullRequestResolverE0B1a_
FNDA:1,_RINvNtCsadPz79N6wDl_11calypso_cli7runtime26load_or_initialize_runtimeNtB2_24GhCliPullRequestResolverEB4_
FNDA:3,_RINvNtCsadPz79N6wDl_11calypso_cli7runtime26load_or_initialize_runtimeNtNtB4_13feature_start25StaticPullRequestResolverEB4_
FNDA:2,_RINvNtCsadPz79N6wDl_11calypso_cli7runtime27discover_repository_contextNtB2_24GhCliPullRequestResolverEB4_
FNDA:3,_RINvNtCsadPz79N6wDl_11calypso_cli7runtime27discover_repository_contextNtNtB4_13feature_start25StaticPullRequestResolverEB4_
FNDA:2,_RNCINvNtCsadPz79N6wDl_11calypso_cli7runtime27discover_repository_contextNtB4_24GhCliPullRequestResolverE0B6_
FNDA:3,_RNCINvNtCsadPz79N6wDl_11calypso_cli7runtime27discover_repository_contextNtNtB6_13feature_start25StaticPullRequestResolverE0B6_
FNDA:1,_RNCNvXs_NtCsadPz79N6wDl_11calypso_cli7runtimeNtB6_24GhCliPullRequestResolverNtB6_19PullRequestResolver18resolve_for_branch0B8_
FNDA:10,_RNvMNtCsadPz79N6wDl_11calypso_cli7runtimeNtB2_12RuntimeState4save
FNDA:27,_RNvNtCsadPz79N6wDl_11calypso_cli7runtime10git_output
FNDA:10,_RNvNtCsadPz79N6wDl_11calypso_cli7runtime15state_file_path
FNDA:1,_RNvNtCsadPz79N6wDl_11calypso_cli7runtime34load_or_initialize_current_runtime
FNDA:1,_RNvNtCsadPz79N6wDl_11calypso_cli7runtime35discover_current_repository_context
FNDA:15,_RNvXs0_NtCsadPz79N6wDl_11calypso_cli7runtimeNtB5_12RuntimeErrorNtNtCs3XFJfFEDSOQ_4core3fmt7Display3fmt
FNDA:5,_RNvXs_NtCsadPz79N6wDl_11calypso_cli7runtimeNtB4_24GhCliPullRequestResolverNtB4_19PullRequestResolver18resolve_for_branch
FNDA:0,_RINvNtCsk43tzqYvrEx_11calypso_cli7runtime26load_or_initialize_runtimepEB4_
FNDA:0,_RINvNtCsk43tzqYvrEx_11calypso_cli7runtime27discover_repository_contextpEB4_
FNDA:0,_RNCINvNtCsk43tzqYvrEx_11calypso_cli7runtime27discover_repository_contextpE0B6_
FNDA:0,_RNCNvXs_NtCsk43tzqYvrEx_11calypso_cli7runtimeNtB6_24GhCliPullRequestResolverNtB6_19PullRequestResolver18resolve_for_branch0B8_
FNDA:0,_RNvMNtCsk43tzqYvrEx_11calypso_cli7runtimeNtB2_12RuntimeState4save
FNDA:0,_RNvNtCsk43tzqYvrEx_11calypso_cli7runtime10git_output
FNDA:0,_RNvNtCsk43tzqYvrEx_11calypso_cli7runtime15state_file_path
FNDA:0,_RNvNtCsk43tzqYvrEx_11calypso_cli7runtime34load_or_initialize_current_runtime
FNDA:0,_RNvNtCsk43tzqYvrEx_11calypso_cli7runtime35discover_current_repository_context
FNDA:0,_RNvXs0_NtCsk43tzqYvrEx_11calypso_cli7runtimeNtB5_12RuntimeErrorNtNtCs3XFJfFEDSOQ_4core3fmt7Display3fmt
FNDA:0,_RNvXs_NtCsk43tzqYvrEx_11calypso_cli7runtimeNtB4_24GhCliPullRequestResolverNtB4_19PullRequestResolver18resolve_for_branch
FNDA:6,_RINvNtCsadPz79N6wDl_11calypso_cli7runtime26load_or_initialize_runtimeNtCs9EmdtP2hbro_7runtime23FakePullRequestResolverEB17_
FNDA:9,_RINvNtCsadPz79N6wDl_11calypso_cli7runtime27discover_repository_contextNtCs9EmdtP2hbro_7runtime23FakePullRequestResolverEB18_
FNDA:7,_RNCINvNtCsadPz79N6wDl_11calypso_cli7runtime27discover_repository_contextNtCs9EmdtP2hbro_7runtime23FakePullRequestResolverE0B1a_
FNF:11
FNH:11
DA:43,10
DA:44,10
DA:45,9
DA:46,1
DA:48,10
DA:49,10
DA:50,10
DA:51,10
DA:66,5
DA:67,5
DA:68,5
DA:69,5
DA:70,5
DA:71,5
DA:72,5
DA:73,5
DA:74,5
DA:75,5
DA:76,5
DA:77,5
DA:78,5
DA:79,5
DA:80,5
DA:81,5
DA:82,5
DA:83,5
DA:84,5
DA:86,5
DA:87,1
DA:88,1
DA:89,1
DA:90,1
DA:91,4
DA:93,4
DA:94,4
DA:95,4
DA:96,4
DA:97,4
DA:98,4
DA:100,3
DA:101,3
DA:102,3
DA:103,3
DA:104,5
DA:107,1
DA:108,1
DA:109,1
DA:110,1
DA:111,1
DA:113,14
DA:114,14
DA:115,14
DA:116,14
DA:117,14
DA:118,13
DA:119,13
DA:120,13
DA:121,13
DA:123,13
DA:124,1
DA:125,12
DA:127,12
DA:128,12
DA:129,12
DA:130,12
DA:131,12
DA:132,12
DA:134,12
DA:135,12
DA:136,12
DA:137,12
DA:138,12
DA:139,12
DA:140,12
DA:141,12
DA:142,12
DA:143,12
DA:144,12
DA:145,12
DA:146,14
DA:148,1
DA:149,1
DA:150,1
DA:152,10
DA:153,10
DA:154,10
DA:155,10
DA:156,10
DA:157,10
DA:158,10
DA:159,10
DA:161,10
DA:162,2
DA:164,2
DA:165,1
DA:166,1
DA:167,1
DA:168,1
DA:169,1
DA:171,1
DA:173,8
DA:174,8
DA:175,8
DA:176,8
DA:177,8
DA:178,8
DA:180,8
DA:182,8
DA:183,8
DA:184,8
DA:185,8
DA:186,8
DA:187,8
DA:188,8
DA:189,8
DA:190,8
DA:191,8
DA:193,8
DA:194,8
DA:195,8
DA:196,8
DA:197,8
DA:198,8
DA:199,8
DA:200,8
DA:203,1
DA:204,1
DA:205,1
DA:206,1
DA:207,1
DA:208,1
DA:209,10
DA:211,10
DA:212,10
DA:213,10
DA:215,27
DA:216,27
DA:217,27
DA:218,27
DA:219,27
DA:220,27
DA:222,27
DA:223,1
DA:224,1
DA:225,1
DA:226,1
DA:227,26
DA:229,26
DA:230,27
DA:253,15
DA:254,15
DA:255,1
DA:256,1
DA:257,1
DA:258,1
DA:259,1
DA:260,1
DA:262,3
DA:263,3
DA:265,2
DA:266,2
DA:269,2
DA:270,2
DA:271,2
DA:275,1
DA:276,1
DA:277,1
DA:280,2
DA:281,2
DA:282,2
DA:285,15
BRF:0
BRH:0
LF:173
LH:173
end_of_record
SF:/home/lucas/calypso/.claude/worktrees/agent-a62ed768/cli/src/signal.rs
FN:30,_RNvMNtCsadPz79N6wDl_11calypso_cli6signalNtB2_10SignalKind9exit_code
FN:60,_RNvMs0_NtCsadPz79N6wDl_11calypso_cli6signalNtB5_14ShutdownSignal4recv
FN:55,_RNvMs0_NtCsadPz79N6wDl_11calypso_cli6signalNtB5_14ShutdownSignal8try_recv
FN:73,_RNvNtCsadPz79N6wDl_11calypso_cli6signal14signal_handler
FN:97,_RNvNtCsadPz79N6wDl_11calypso_cli6signal23install_signal_handlers
FN:39,_RNvXs_NtCsadPz79N6wDl_11calypso_cli6signalNtB4_10SignalKindNtNtCs3XFJfFEDSOQ_4core3fmt7Display3fmt
FN:108,_RNCNvNtCsadPz79N6wDl_11calypso_cli6signal23install_signal_handlers0B5_
FN:30,_RNvMNtCsk43tzqYvrEx_11calypso_cli6signalNtB2_10SignalKind9exit_code
FN:60,_RNvMs0_NtCsk43tzqYvrEx_11calypso_cli6signalNtB5_14ShutdownSignal4recv
FN:55,_RNvMs0_NtCsk43tzqYvrEx_11calypso_cli6signalNtB5_14ShutdownSignal8try_recv
FN:73,_RNvNtCsk43tzqYvrEx_11calypso_cli6signal14signal_handler
FN:97,_RNvNtCsk43tzqYvrEx_11calypso_cli6signal23install_signal_handlers
FN:39,_RNvXs_NtCsk43tzqYvrEx_11calypso_cli6signalNtB4_10SignalKindNtNtCs3XFJfFEDSOQ_4core3fmt7Display3fmt
FN:141,_RNvNtNtCsk43tzqYvrEx_11calypso_cli6signal5testss_18display_formatting
FN:171,_RNvNtNtCsk43tzqYvrEx_11calypso_cli6signal5testss_20signal_kind_equality
FN:131,_RNvNtNtCsk43tzqYvrEx_11calypso_cli6signal5testss_23exit_code_sigint_is_130
FN:136,_RNvNtNtCsk43tzqYvrEx_11calypso_cli6signal5testss_24exit_code_sigterm_is_143
FN:163,_RNvNtNtCsk43tzqYvrEx_11calypso_cli6signal5testss_29recv_returns_signal_when_sent
FN:155,_RNvNtNtCsk43tzqYvrEx_11calypso_cli6signal5testss_33try_recv_returns_signal_when_sent
FN:147,_RNvNtNtCsk43tzqYvrEx_11calypso_cli6signal5testss_36try_recv_returns_none_when_no_signal
FN:108,_RNCNvNtCsk43tzqYvrEx_11calypso_cli6signal23install_signal_handlers0B5_
FNDA:0,_RNvMNtCsadPz79N6wDl_11calypso_cli6signalNtB2_10SignalKind9exit_code
FNDA:0,_RNvMs0_NtCsadPz79N6wDl_11calypso_cli6signalNtB5_14ShutdownSignal4recv
FNDA:0,_RNvMs0_NtCsadPz79N6wDl_11calypso_cli6signalNtB5_14ShutdownSignal8try_recv
FNDA:0,_RNvNtCsadPz79N6wDl_11calypso_cli6signal14signal_handler
FNDA:0,_RNvNtCsadPz79N6wDl_11calypso_cli6signal23install_signal_handlers
FNDA:0,_RNvXs_NtCsadPz79N6wDl_11calypso_cli6signalNtB4_10SignalKindNtNtCs3XFJfFEDSOQ_4core3fmt7Display3fmt
FNDA:0,_RNCNvNtCsadPz79N6wDl_11calypso_cli6signal23install_signal_handlers0B5_
FNDA:2,_RNvMNtCsk43tzqYvrEx_11calypso_cli6signalNtB2_10SignalKind9exit_code
FNDA:1,_RNvMs0_NtCsk43tzqYvrEx_11calypso_cli6signalNtB5_14ShutdownSignal4recv
FNDA:2,_RNvMs0_NtCsk43tzqYvrEx_11calypso_cli6signalNtB5_14ShutdownSignal8try_recv
FNDA:0,_RNvNtCsk43tzqYvrEx_11calypso_cli6signal14signal_handler
FNDA:2,_RNvNtCsk43tzqYvrEx_11calypso_cli6signal23install_signal_handlers
FNDA:2,_RNvXs_NtCsk43tzqYvrEx_11calypso_cli6signalNtB4_10SignalKindNtNtCs3XFJfFEDSOQ_4core3fmt7Display3fmt
FNDA:1,_RNvNtNtCsk43tzqYvrEx_11calypso_cli6signal5testss_18display_formatting
FNDA:1,_RNvNtNtCsk43tzqYvrEx_11calypso_cli6signal5testss_20signal_kind_equality
FNDA:1,_RNvNtNtCsk43tzqYvrEx_11calypso_cli6signal5testss_23exit_code_sigint_is_130
FNDA:1,_RNvNtNtCsk43tzqYvrEx_11calypso_cli6signal5testss_24exit_code_sigterm_is_143
FNDA:1,_RNvNtNtCsk43tzqYvrEx_11calypso_cli6signal5testss_29recv_returns_signal_when_sent
FNDA:1,_RNvNtNtCsk43tzqYvrEx_11calypso_cli6signal5testss_33try_recv_returns_signal_when_sent
FNDA:1,_RNvNtNtCsk43tzqYvrEx_11calypso_cli6signal5testss_36try_recv_returns_none_when_no_signal
FNDA:2,_RNCNvNtCsk43tzqYvrEx_11calypso_cli6signal23install_signal_handlers0B5_
FNF:14
FNH:13
DA:30,2
DA:31,2
DA:32,1
DA:33,1
DA:35,2
DA:39,2
DA:40,2
DA:41,1
DA:42,1
DA:44,2
DA:55,2
DA:56,2
DA:57,2
DA:60,1
DA:61,1
DA:62,1
DA:63,1
DA:64,1
DA:73,0
DA:74,0
DA:75,0
DA:76,0
DA:77,0
DA:78,0
DA:79,0
DA:97,2
DA:99,2
DA:100,2
DA:101,2
DA:102,2
DA:104,2
DA:106,2
DA:107,2
DA:108,2
DA:110,2
DA:111,0
DA:112,0
DA:113,2
DA:114,2
DA:115,2
DA:116,2
DA:117,0
DA:118,0
DA:120,2
DA:121,2
DA:123,2
DA:124,2
DA:131,1
DA:132,1
DA:133,1
DA:136,1
DA:137,1
DA:138,1
DA:141,1
DA:142,1
DA:143,1
DA:144,1
DA:147,1
DA:149,1
DA:150,1
DA:151,1
DA:152,1
DA:155,1
DA:156,1
DA:157,1
DA:158,1
DA:159,1
DA:160,1
DA:163,1
DA:164,1
DA:165,1
DA:166,1
DA:167,1
DA:168,1
DA:171,1
DA:172,1
DA:173,1
DA:174,1
BRF:0
BRH:0
LF:79
LH:68
end_of_record
SF:/home/lucas/calypso/.claude/worktrees/agent-a62ed768/cli/src/sm_audit.rs
FN:81,_RNCNCNCNvNtCsadPz79N6wDl_11calypso_cli8sm_audit18parse_gha_workflows2_000B9_
FN:81,_RNCNCNvNtCsadPz79N6wDl_11calypso_cli8sm_audit18parse_gha_workflows2_00B7_
FN:45,_RNCNvMNtCsadPz79N6wDl_11calypso_cli8sm_auditNtB4_17StateMachineAudit11error_count0B6_
FN:52,_RNCNvMNtCsadPz79N6wDl_11calypso_cli8sm_auditNtB4_17StateMachineAudit13warning_count0B6_
FN:169,_RNCNvNtCsadPz79N6wDl_11calypso_cli8sm_audit16suggest_filename0B5_
FN:69,_RNCNvNtCsadPz79N6wDl_11calypso_cli8sm_audit18parse_gha_workflow0B5_
FN:74,_RNCNvNtCsadPz79N6wDl_11calypso_cli8sm_audit18parse_gha_workflows0_0B5_
FN:78,_RNCNvNtCsadPz79N6wDl_11calypso_cli8sm_audit18parse_gha_workflows1_0B5_
FN:79,_RNCNvNtCsadPz79N6wDl_11calypso_cli8sm_audit18parse_gha_workflows2_0B5_
FN:73,_RNCNvNtCsadPz79N6wDl_11calypso_cli8sm_audit18parse_gha_workflows_0B5_
FN:131,_RNCNvNtCsadPz79N6wDl_11calypso_cli8sm_audit18scan_gha_directory0B5_
FN:134,_RNCNvNtCsadPz79N6wDl_11calypso_cli8sm_audit18scan_gha_directorys0_0B5_
FN:132,_RNCNvNtCsadPz79N6wDl_11calypso_cli8sm_audit18scan_gha_directorys_0B5_
FN:412,_RNCNvNtCsadPz79N6wDl_11calypso_cli8sm_audit22audit_check_references0B5_
FN:482,_RNCNvNtCsadPz79N6wDl_11calypso_cli8sm_audit27audit_template_policy_gates0B5_
FN:352,_RNCNvNtCsadPz79N6wDl_11calypso_cli8sm_audit27validate_workflow_reference0B5_
FN:42,_RNvMNtCsadPz79N6wDl_11calypso_cli8sm_auditNtB2_17StateMachineAudit11error_count
FN:49,_RNvMNtCsadPz79N6wDl_11calypso_cli8sm_auditNtB2_17StateMachineAudit13warning_count
FN:491,_RNvNtCsadPz79N6wDl_11calypso_cli8sm_audit11names_match
FN:496,_RNvNtCsadPz79N6wDl_11calypso_cli8sm_audit12render_audit
FN:146,_RNvNtCsadPz79N6wDl_11calypso_cli8sm_audit16suggest_filename
FN:173,_RNvNtCsadPz79N6wDl_11calypso_cli8sm_audit17common_char_count
FN:377,_RNvNtCsadPz79N6wDl_11calypso_cli8sm_audit17validate_job_keys
FN:67,_RNvNtCsadPz79N6wDl_11calypso_cli8sm_audit18parse_gha_workflow
FN:125,_RNvNtCsadPz79N6wDl_11calypso_cli8sm_audit18scan_gha_directory
FN:411,_RNvNtCsadPz79N6wDl_11calypso_cli8sm_audit22audit_check_references
FN:180,_RNvNtCsadPz79N6wDl_11calypso_cli8sm_audit24audit_blueprint_workflow
FN:465,_RNvNtCsadPz79N6wDl_11calypso_cli8sm_audit27audit_template_policy_gates
FN:334,_RNvNtCsadPz79N6wDl_11calypso_cli8sm_audit27validate_workflow_reference
FN:92,_RNvNtCsadPz79N6wDl_11calypso_cli8sm_audit9run_audit
FN:42,_RNvMNtCsk43tzqYvrEx_11calypso_cli8sm_auditNtB2_17StateMachineAudit11error_count
FN:49,_RNvMNtCsk43tzqYvrEx_11calypso_cli8sm_auditNtB2_17StateMachineAudit13warning_count
FN:491,_RNvNtCsk43tzqYvrEx_11calypso_cli8sm_audit11names_match
FN:496,_RNvNtCsk43tzqYvrEx_11calypso_cli8sm_audit12render_audit
FN:146,_RNvNtCsk43tzqYvrEx_11calypso_cli8sm_audit16suggest_filename
FN:173,_RNvNtCsk43tzqYvrEx_11calypso_cli8sm_audit17common_char_count
FN:377,_RNvNtCsk43tzqYvrEx_11calypso_cli8sm_audit17validate_job_keys
FN:67,_RNvNtCsk43tzqYvrEx_11calypso_cli8sm_audit18parse_gha_workflow
FN:125,_RNvNtCsk43tzqYvrEx_11calypso_cli8sm_audit18scan_gha_directory
FN:411,_RNvNtCsk43tzqYvrEx_11calypso_cli8sm_audit22audit_check_references
FN:180,_RNvNtCsk43tzqYvrEx_11calypso_cli8sm_audit24audit_blueprint_workflow
FN:465,_RNvNtCsk43tzqYvrEx_11calypso_cli8sm_audit27audit_template_policy_gates
FN:334,_RNvNtCsk43tzqYvrEx_11calypso_cli8sm_audit27validate_workflow_reference
FN:92,_RNvNtCsk43tzqYvrEx_11calypso_cli8sm_audit9run_audit
FN:81,_RNCNCNCNvNtCsk43tzqYvrEx_11calypso_cli8sm_audit18parse_gha_workflows2_000B9_
FN:81,_RNCNCNvNtCsk43tzqYvrEx_11calypso_cli8sm_audit18parse_gha_workflows2_00B7_
FN:45,_RNCNvMNtCsk43tzqYvrEx_11calypso_cli8sm_auditNtB4_17StateMachineAudit11error_count0B6_
FN:52,_RNCNvMNtCsk43tzqYvrEx_11calypso_cli8sm_auditNtB4_17StateMachineAudit13warning_count0B6_
FN:169,_RNCNvNtCsk43tzqYvrEx_11calypso_cli8sm_audit16suggest_filename0B5_
FN:69,_RNCNvNtCsk43tzqYvrEx_11calypso_cli8sm_audit18parse_gha_workflow0B5_
FN:74,_RNCNvNtCsk43tzqYvrEx_11calypso_cli8sm_audit18parse_gha_workflows0_0B5_
FN:78,_RNCNvNtCsk43tzqYvrEx_11calypso_cli8sm_audit18parse_gha_workflows1_0B5_
FN:79,_RNCNvNtCsk43tzqYvrEx_11calypso_cli8sm_audit18parse_gha_workflows2_0B5_
FN:73,_RNCNvNtCsk43tzqYvrEx_11calypso_cli8sm_audit18parse_gha_workflows_0B5_
FN:131,_RNCNvNtCsk43tzqYvrEx_11calypso_cli8sm_audit18scan_gha_directory0B5_
FN:134,_RNCNvNtCsk43tzqYvrEx_11calypso_cli8sm_audit18scan_gha_directorys0_0B5_
FN:132,_RNCNvNtCsk43tzqYvrEx_11calypso_cli8sm_audit18scan_gha_directorys_0B5_
FN:412,_RNCNvNtCsk43tzqYvrEx_11calypso_cli8sm_audit22audit_check_references0B5_
FN:482,_RNCNvNtCsk43tzqYvrEx_11calypso_cli8sm_audit27audit_template_policy_gates0B5_
FN:352,_RNCNvNtCsk43tzqYvrEx_11calypso_cli8sm_audit27validate_workflow_reference0B5_
FN:542,_RNvNtNtCsk43tzqYvrEx_11calypso_cli8sm_audit5tests14write_gha_file
FN:531,_RNvNtNtCsk43tzqYvrEx_11calypso_cli8sm_audit5tests15unique_temp_dir
FN:810,_RNvNtNtCsk43tzqYvrEx_11calypso_cli8sm_audit5testss_18render_audit_clean
FN:817,_RNvNtNtCsk43tzqYvrEx_11calypso_cli8sm_audit5testss_26render_audit_with_findings
FN:734,_RNvNtNtCsk43tzqYvrEx_11calypso_cli8sm_audit5testss_27audit_detects_orphan_checks
FN:687,_RNvNtNtCsk43tzqYvrEx_11calypso_cli8sm_audit5testss_29audit_reports_invalid_job_key
FN:638,_RNvNtNtCsk43tzqYvrEx_11calypso_cli8sm_audit5testss_36audit_reports_workflow_name_mismatch
FN:712,_RNvNtNtCsk43tzqYvrEx_11calypso_cli8sm_audit5testss_38audit_reports_valid_job_key_no_finding
FN:795,_RNvNtNtCsk43tzqYvrEx_11calypso_cli8sm_audit5testss_38suggest_filename_finds_substring_match
FN:765,_RNvNtNtCsk43tzqYvrEx_11calypso_cli8sm_audit5testss_39audit_detects_dangling_check_references
FN:565,_RNvNtNtCsk43tzqYvrEx_11calypso_cli8sm_audit5testss_39parse_gha_workflow_handles_missing_name
FN:555,_RNvNtNtCsk43tzqYvrEx_11calypso_cli8sm_audit5testss_41parse_gha_workflow_extracts_name_and_jobs
FN:573,_RNvNtNtCsk43tzqYvrEx_11calypso_cli8sm_audit5testss_44audit_passes_when_all_references_are_correct
FN:613,_RNvNtNtCsk43tzqYvrEx_11calypso_cli8sm_audit5testss_51audit_reports_missing_workflow_file_with_suggestion
FN:545,_RNCNvNtNtCsk43tzqYvrEx_11calypso_cli8sm_audit5tests14write_gha_file0B7_
FN:757,_RNCNvNtNtCsk43tzqYvrEx_11calypso_cli8sm_audit5testss_27audit_detects_orphan_checks0B7_
FN:787,_RNCNvNtNtCsk43tzqYvrEx_11calypso_cli8sm_audit5testss_39audit_detects_dangling_check_references0B7_
FN:600,_RNCNvNtNtCsk43tzqYvrEx_11calypso_cli8sm_audit5testss_44audit_passes_when_all_references_are_correct0B7_
FNDA:85,_RNCNCNCNvNtCsadPz79N6wDl_11calypso_cli8sm_audit18parse_gha_workflows2_000B9_
FNDA:85,_RNCNCNvNtCsadPz79N6wDl_11calypso_cli8sm_audit18parse_gha_workflows2_00B7_
FNDA:2712,_RNCNvMNtCsadPz79N6wDl_11calypso_cli8sm_auditNtB4_17StateMachineAudit11error_count0B6_
FNDA:1356,_RNCNvMNtCsadPz79N6wDl_11calypso_cli8sm_auditNtB4_17StateMachineAudit13warning_count0B6_
FNDA:50,_RNCNvNtCsadPz79N6wDl_11calypso_cli8sm_audit16suggest_filename0B5_
FNDA:0,_RNCNvNtCsadPz79N6wDl_11calypso_cli8sm_audit18parse_gha_workflow0B5_
FNDA:70,_RNCNvNtCsadPz79N6wDl_11calypso_cli8sm_audit18parse_gha_workflows0_0B5_
FNDA:70,_RNCNvNtCsadPz79N6wDl_11calypso_cli8sm_audit18parse_gha_workflows1_0B5_
FNDA:70,_RNCNvNtCsadPz79N6wDl_11calypso_cli8sm_audit18parse_gha_workflows2_0B5_
FNDA:70,_RNCNvNtCsadPz79N6wDl_11calypso_cli8sm_audit18parse_gha_workflows_0B5_
FNDA:70,_RNCNvNtCsadPz79N6wDl_11calypso_cli8sm_audit18scan_gha_directory0B5_
FNDA:70,_RNCNvNtCsadPz79N6wDl_11calypso_cli8sm_audit18scan_gha_directorys0_0B5_
FNDA:0,_RNCNvNtCsadPz79N6wDl_11calypso_cli8sm_audit18scan_gha_directorys_0B5_
FNDA:3784,_RNCNvNtCsadPz79N6wDl_11calypso_cli8sm_audit22audit_check_references0B5_
FNDA:0,_RNCNvNtCsadPz79N6wDl_11calypso_cli8sm_audit27audit_template_policy_gates0B5_
FNDA:50,_RNCNvNtCsadPz79N6wDl_11calypso_cli8sm_audit27validate_workflow_reference0B5_
FNDA:44,_RNvMNtCsadPz79N6wDl_11calypso_cli8sm_auditNtB2_17StateMachineAudit11error_count
FNDA:22,_RNvMNtCsadPz79N6wDl_11calypso_cli8sm_auditNtB2_17StateMachineAudit13warning_count
FNDA:5,_RNvNtCsadPz79N6wDl_11calypso_cli8sm_audit11names_match
FNDA:22,_RNvNtCsadPz79N6wDl_11calypso_cli8sm_audit12render_audit
FNDA:1175,_RNvNtCsadPz79N6wDl_11calypso_cli8sm_audit16suggest_filename
FNDA:150,_RNvNtCsadPz79N6wDl_11calypso_cli8sm_audit17common_char_count
FNDA:286,_RNvNtCsadPz79N6wDl_11calypso_cli8sm_audit17validate_job_keys
FNDA:70,_RNvNtCsadPz79N6wDl_11calypso_cli8sm_audit18parse_gha_workflow
FNDA:22,_RNvNtCsadPz79N6wDl_11calypso_cli8sm_audit18scan_gha_directory
FNDA:220,_RNvNtCsadPz79N6wDl_11calypso_cli8sm_audit22audit_check_references
FNDA:220,_RNvNtCsadPz79N6wDl_11calypso_cli8sm_audit24audit_blueprint_workflow
FNDA:22,_RNvNtCsadPz79N6wDl_11calypso_cli8sm_audit27audit_template_policy_gates
FNDA:1078,_RNvNtCsadPz79N6wDl_11calypso_cli8sm_audit27validate_workflow_reference
FNDA:22,_RNvNtCsadPz79N6wDl_11calypso_cli8sm_audit9run_audit
FNDA:1,_RNvMNtCsk43tzqYvrEx_11calypso_cli8sm_auditNtB2_17StateMachineAudit11error_count
FNDA:1,_RNvMNtCsk43tzqYvrEx_11calypso_cli8sm_auditNtB2_17StateMachineAudit13warning_count
FNDA:11,_RNvNtCsk43tzqYvrEx_11calypso_cli8sm_audit11names_match
FNDA:2,_RNvNtCsk43tzqYvrEx_11calypso_cli8sm_audit12render_audit
FNDA:42,_RNvNtCsk43tzqYvrEx_11calypso_cli8sm_audit16suggest_filename
FNDA:11,_RNvNtCsk43tzqYvrEx_11calypso_cli8sm_audit17common_char_count
FNDA:15,_RNvNtCsk43tzqYvrEx_11calypso_cli8sm_audit17validate_job_keys
FNDA:14,_RNvNtCsk43tzqYvrEx_11calypso_cli8sm_audit18parse_gha_workflow
FNDA:5,_RNvNtCsk43tzqYvrEx_11calypso_cli8sm_audit18scan_gha_directory
FNDA:12,_RNvNtCsk43tzqYvrEx_11calypso_cli8sm_audit22audit_check_references
FNDA:10,_RNvNtCsk43tzqYvrEx_11calypso_cli8sm_audit24audit_blueprint_workflow
FNDA:1,_RNvNtCsk43tzqYvrEx_11calypso_cli8sm_audit27audit_template_policy_gates
FNDA:52,_RNvNtCsk43tzqYvrEx_11calypso_cli8sm_audit27validate_workflow_reference
FNDA:1,_RNvNtCsk43tzqYvrEx_11calypso_cli8sm_audit9run_audit
FNDA:17,_RNCNCNCNvNtCsk43tzqYvrEx_11calypso_cli8sm_audit18parse_gha_workflows2_000B9_
FNDA:17,_RNCNCNvNtCsk43tzqYvrEx_11calypso_cli8sm_audit18parse_gha_workflows2_00B7_
FNDA:2,_RNCNvMNtCsk43tzqYvrEx_11calypso_cli8sm_auditNtB4_17StateMachineAudit11error_count0B6_
FNDA:2,_RNCNvMNtCsk43tzqYvrEx_11calypso_cli8sm_auditNtB4_17StateMachineAudit13warning_count0B6_
FNDA:11,_RNCNvNtCsk43tzqYvrEx_11calypso_cli8sm_audit16suggest_filename0B5_
FNDA:0,_RNCNvNtCsk43tzqYvrEx_11calypso_cli8sm_audit18parse_gha_workflow0B5_
FNDA:13,_RNCNvNtCsk43tzqYvrEx_11calypso_cli8sm_audit18parse_gha_workflows0_0B5_
FNDA:14,_RNCNvNtCsk43tzqYvrEx_11calypso_cli8sm_audit18parse_gha_workflows1_0B5_
FNDA:14,_RNCNvNtCsk43tzqYvrEx_11calypso_cli8sm_audit18parse_gha_workflows2_0B5_
FNDA:13,_RNCNvNtCsk43tzqYvrEx_11calypso_cli8sm_audit18parse_gha_workflows_0B5_
FNDA:12,_RNCNvNtCsk43tzqYvrEx_11calypso_cli8sm_audit18scan_gha_directory0B5_
FNDA:12,_RNCNvNtCsk43tzqYvrEx_11calypso_cli8sm_audit18scan_gha_directorys0_0B5_
FNDA:0,_RNCNvNtCsk43tzqYvrEx_11calypso_cli8sm_audit18scan_gha_directorys_0B5_
FNDA:175,_RNCNvNtCsk43tzqYvrEx_11calypso_cli8sm_audit22audit_check_references0B5_
FNDA:0,_RNCNvNtCsk43tzqYvrEx_11calypso_cli8sm_audit27audit_template_policy_gates0B5_
FNDA:10,_RNCNvNtCsk43tzqYvrEx_11calypso_cli8sm_audit27validate_workflow_reference0B5_
FNDA:12,_RNvNtNtCsk43tzqYvrEx_11calypso_cli8sm_audit5tests14write_gha_file
FNDA:5,_RNvNtNtCsk43tzqYvrEx_11calypso_cli8sm_audit5tests15unique_temp_dir
FNDA:1,_RNvNtNtCsk43tzqYvrEx_11calypso_cli8sm_audit5testss_18render_audit_clean
FNDA:1,_RNvNtNtCsk43tzqYvrEx_11calypso_cli8sm_audit5testss_26render_audit_with_findings
FNDA:1,_RNvNtNtCsk43tzqYvrEx_11calypso_cli8sm_audit5testss_27audit_detects_orphan_checks
FNDA:1,_RNvNtNtCsk43tzqYvrEx_11calypso_cli8sm_audit5testss_29audit_reports_invalid_job_key
FNDA:1,_RNvNtNtCsk43tzqYvrEx_11calypso_cli8sm_audit5testss_36audit_reports_workflow_name_mismatch
FNDA:1,_RNvNtNtCsk43tzqYvrEx_11calypso_cli8sm_audit5testss_38audit_reports_valid_job_key_no_finding
FNDA:1,_RNvNtNtCsk43tzqYvrEx_11calypso_cli8sm_audit5testss_38suggest_filename_finds_substring_match
FNDA:1,_RNvNtNtCsk43tzqYvrEx_11calypso_cli8sm_audit5testss_39audit_detects_dangling_check_references
FNDA:1,_RNvNtNtCsk43tzqYvrEx_11calypso_cli8sm_audit5testss_39parse_gha_workflow_handles_missing_name
FNDA:1,_RNvNtNtCsk43tzqYvrEx_11calypso_cli8sm_audit5testss_41parse_gha_workflow_extracts_name_and_jobs
FNDA:1,_RNvNtNtCsk43tzqYvrEx_11calypso_cli8sm_audit5testss_44audit_passes_when_all_references_are_correct
FNDA:1,_RNvNtNtCsk43tzqYvrEx_11calypso_cli8sm_audit5testss_51audit_reports_missing_workflow_file_with_suggestion
FNDA:14,_RNCNvNtNtCsk43tzqYvrEx_11calypso_cli8sm_audit5tests14write_gha_file0B7_
FNDA:1,_RNCNvNtNtCsk43tzqYvrEx_11calypso_cli8sm_audit5testss_27audit_detects_orphan_checks0B7_
FNDA:1,_RNCNvNtNtCsk43tzqYvrEx_11calypso_cli8sm_audit5testss_39audit_detects_dangling_check_references0B7_
FNDA:48,_RNCNvNtNtCsk43tzqYvrEx_11calypso_cli8sm_audit5testss_44audit_passes_when_all_references_are_correct0B7_
FNF:48
FNH:45
DA:42,45
DA:43,45
DA:44,45
DA:45,2714
DA:46,45
DA:47,45
DA:49,23
DA:50,23
DA:51,23
DA:52,1358
DA:53,23
DA:54,23
DA:67,84
DA:68,84
DA:69,84
DA:71,84
DA:72,84
DA:73,84
DA:74,84
DA:76,84
DA:77,84
DA:78,84
DA:79,84
DA:80,84
DA:81,102
DA:82,84
DA:83,84
DA:84,84
DA:86,84
DA:87,84
DA:92,23
DA:93,23
DA:96,23
DA:99,230
DA:100,230
DA:101,230
DA:102,0
DA:103,0
DA:104,0
DA:105,0
DA:106,0
DA:107,0
DA:108,0
DA:109,0
DA:113,230
DA:117,23
DA:118,23
DA:119,23
DA:121,23
DA:122,23
DA:125,27
DA:126,27
DA:127,27
DA:128,27
DA:129,82
DA:130,82
DA:131,82
DA:132,0
DA:133,82
DA:134,82
DA:135,82
DA:136,82
DA:137,82
DA:138,82
DA:139,82
DA:141,17
DA:142,27
DA:143,27
DA:146,1217
DA:148,1217
DA:149,1217
DA:150,1217
DA:151,1217
DA:152,1217
DA:153,1217
DA:155,1217
DA:157,3682
DA:158,3682
DA:161,3682
DA:162,161
DA:163,161
DA:164,61
DA:165,100
DA:166,3521
DA:169,1217
DA:170,1217
DA:173,161
DA:174,161
DA:175,161
DA:176,161
DA:177,161
DA:180,230
DA:181,230
DA:182,230
DA:183,230
DA:184,230
DA:185,230
DA:186,230
DA:188,4186
DA:189,3956
DA:191,575
DA:192,575
DA:193,575
DA:194,575
DA:195,575
DA:196,575
DA:197,575
DA:198,575
DA:199,575
DA:203,575
DA:204,0
DA:205,0
DA:206,0
DA:207,0
DA:208,0
DA:209,0
DA:210,0
DA:211,0
DA:212,575
DA:215,575
DA:216,299
DA:217,299
DA:218,299
DA:219,299
DA:220,299
DA:221,299
DA:222,299
DA:223,299
DA:224,299
DA:225,0
DA:226,3381
DA:230,230
DA:231,92
DA:232,92
DA:233,92
DA:234,92
DA:235,92
DA:237,644
DA:238,552
DA:239,552
DA:241,552
DA:242,552
DA:243,552
DA:244,552
DA:245,552
DA:246,552
DA:247,552
DA:248,552
DA:251,552
DA:252,0
DA:253,0
DA:254,0
DA:255,0
DA:256,0
DA:257,0
DA:258,0
DA:259,0
DA:260,552
DA:261,0
DA:263,138
DA:266,230
DA:267,0
DA:269,0
DA:270,0
DA:271,0
DA:273,0
DA:274,0
DA:275,0
DA:276,0
DA:277,0
DA:278,0
DA:279,0
DA:280,0
DA:283,0
DA:284,0
DA:285,0
DA:286,0
DA:287,0
DA:288,0
DA:289,0
DA:290,0
DA:291,0
DA:292,0
DA:293,0
DA:295,230
DA:298,2576
DA:299,2346
DA:300,0
DA:301,0
DA:302,0
DA:304,0
DA:305,0
DA:306,0
DA:307,0
DA:308,0
DA:309,0
DA:310,0
DA:311,0
DA:314,0
DA:315,0
DA:316,0
DA:317,0
DA:318,0
DA:319,0
DA:320,0
DA:321,0
DA:322,0
DA:323,0
DA:324,0
DA:326,2346
DA:330,230
DA:331,230
DA:334,1130
DA:335,1130
DA:336,1130
DA:337,1130
DA:338,1130
DA:339,1130
DA:340,1130
DA:341,1130
DA:342,1130
DA:343,1130
DA:346,1130
DA:347,1114
DA:348,1114
DA:349,1114
DA:350,1114
DA:351,1114
DA:352,1114
DA:354,1114
DA:355,16
DA:358,16
DA:359,16
DA:360,16
DA:361,16
DA:362,16
DA:363,6
DA:364,6
DA:365,6
DA:366,6
DA:367,6
DA:368,6
DA:369,6
DA:370,6
DA:371,6
DA:372,10
DA:373,0
DA:374,1130
DA:377,301
DA:378,301
DA:379,301
DA:380,301
DA:381,301
DA:382,301
DA:383,301
DA:384,301
DA:385,301
DA:386,301
DA:387,2
DA:388,299
DA:391,4
DA:392,2
DA:393,1
DA:394,1
DA:395,1
DA:396,1
DA:397,1
DA:398,1
DA:399,0
DA:401,1
DA:404,1
DA:406,1
DA:408,301
DA:411,232
DA:412,3959
DA:415,232
DA:416,2348
DA:417,2348
DA:418,1242
DA:419,966
DA:420,966
DA:421,2072
DA:423,2348
DA:424,1129
DA:425,3018
DA:426,2165
DA:427,2165
DA:428,276
DA:429,1129
DA:430,1104
DA:431,805
DA:432,805
DA:433,830
DA:434,1219
DA:438,4007
DA:439,3775
DA:440,1
DA:441,1
DA:442,1
DA:443,1
DA:444,1
DA:445,1
DA:446,1
DA:447,1
DA:448,3774
DA:452,4191
DA:453,3959
DA:454,185
DA:455,185
DA:456,185
DA:457,185
DA:458,185
DA:459,185
DA:460,3774
DA:462,232
DA:465,23
DA:466,23
DA:467,23
DA:468,23
DA:469,23
DA:470,23
DA:471,138
DA:472,322
DA:473,207
DA:474,138
DA:475,138
DA:476,102
DA:477,102
DA:478,102
DA:479,102
DA:480,102
DA:481,102
DA:482,102
DA:484,36
DA:485,69
DA:488,23
DA:491,16
DA:492,16
DA:493,16
DA:496,24
DA:497,24
DA:498,1
DA:499,23
DA:501,23
DA:502,23
DA:503,23
DA:504,23
DA:507,1381
DA:508,1358
DA:509,1176
DA:510,182
DA:512,1358
DA:513,1358
DA:516,1358
DA:517,56
DA:518,1302
DA:521,23
DA:522,24
DA:531,5
DA:532,5
DA:533,5
DA:534,5
DA:535,5
DA:536,5
DA:537,5
DA:538,5
DA:539,5
DA:540,5
DA:542,12
DA:543,12
DA:544,12
DA:545,14
DA:546,14
DA:547,14
DA:548,12
DA:549,12
DA:550,12
DA:551,12
DA:552,12
DA:555,1
DA:556,1
DA:557,1
DA:558,1
DA:559,1
DA:560,1
DA:561,1
DA:562,1
DA:565,1
DA:566,1
DA:567,1
DA:568,1
DA:569,1
DA:570,1
DA:573,1
DA:574,1
DA:575,1
DA:576,1
DA:579,1
DA:580,1
DA:581,1
DA:582,1
DA:583,1
DA:584,1
DA:585,1
DA:587,1
DA:588,1
DA:589,1
DA:591,1
DA:597,1
DA:598,1
DA:599,1
DA:600,48
DA:601,48
DA:602,48
DA:603,1
DA:604,1
DA:605,1
DA:606,0
DA:609,1
DA:610,1
DA:613,1
DA:614,1
DA:616,1
DA:618,1
DA:619,1
DA:621,1
DA:622,1
DA:623,1
DA:624,1
DA:625,1
DA:626,1
DA:627,1
DA:628,1
DA:631,1
DA:632,1
DA:633,1
DA:635,1
DA:638,1
DA:639,1
DA:640,1
DA:642,1
DA:643,1
DA:646,1
DA:647,1
DA:648,1
DA:649,1
DA:650,1
DA:651,1
DA:652,1
DA:653,1
DA:656,1
DA:657,1
DA:658,0
DA:662,1
DA:663,1
DA:664,1
DA:665,1
DA:666,1
DA:667,1
DA:668,1
DA:669,1
DA:672,1
DA:673,1
DA:674,1
DA:675,1
DA:676,1
DA:677,1
DA:678,1
DA:679,1
DA:680,1
DA:683,1
DA:684,1
DA:687,1
DA:688,1
DA:689,1
DA:691,1
DA:692,1
DA:694,1
DA:695,1
DA:696,1
DA:697,1
DA:698,1
DA:699,1
DA:700,1
DA:703,1
DA:704,1
DA:705,1
DA:706,1
DA:708,1
DA:709,1
DA:712,1
DA:713,1
DA:714,1
DA:716,1
DA:717,1
DA:719,1
DA:720,1
DA:721,1
DA:722,1
DA:723,1
DA:724,1
DA:725,1
DA:728,1
DA:730,1
DA:731,1
DA:734,1
DA:735,1
DA:736,1
DA:737,1
DA:738,1
DA:739,1
DA:740,1
DA:741,1
DA:742,1
DA:743,1
DA:744,1
DA:745,1
DA:746,1
DA:747,1
DA:748,1
DA:749,1
DA:750,1
DA:751,1
DA:752,1
DA:753,1
DA:755,1
DA:756,1
DA:757,1
DA:758,1
DA:759,1
DA:760,1
DA:761,1
DA:762,1
DA:765,1
DA:766,1
DA:767,1
DA:768,1
DA:769,1
DA:770,1
DA:771,1
DA:772,1
DA:773,1
DA:774,1
DA:775,1
DA:776,1
DA:777,1
DA:778,1
DA:779,1
DA:780,1
DA:781,1
DA:782,1
DA:783,1
DA:785,1
DA:786,1
DA:787,1
DA:788,1
DA:789,1
DA:790,1
DA:791,1
DA:792,1
DA:795,1
DA:796,1
DA:797,1
DA:798,1
DA:799,1
DA:800,1
DA:801,1
DA:802,1
DA:805,1
DA:806,1
DA:807,1
DA:810,1
DA:811,1
DA:812,1
DA:813,1
DA:814,1
DA:817,1
DA:818,1
DA:819,1
DA:820,1
DA:821,1
DA:822,1
DA:823,1
DA:824,1
DA:825,1
DA:826,1
DA:827,1
DA:828,1
DA:829,1
DA:830,1
DA:831,1
DA:832,1
DA:833,1
DA:834,1
DA:835,1
DA:836,1
DA:837,1
DA:838,1
DA:839,1
BRF:0
BRH:0
LF:619
LH:540
end_of_record
SF:/home/lucas/calypso/.claude/worktrees/agent-a62ed768/cli/src/state.rs
FN:221,_RNCNCNvMs_NtCsadPz79N6wDl_11calypso_cli5stateNtB8_12FeatureState13from_template00Ba_
FN:732,_RNCNvMs4_NtCsadPz79N6wDl_11calypso_cli5stateNtB7_9GateGroup13rollup_status0B9_
FN:744,_RNCNvMs4_NtCsadPz79N6wDl_11calypso_cli5stateNtB7_9GateGroup13rollup_statuss0_0B9_
FN:738,_RNCNvMs4_NtCsadPz79N6wDl_11calypso_cli5stateNtB7_9GateGroup13rollup_statuss_0B9_
FN:722,_RNCNvMs4_NtCsadPz79N6wDl_11calypso_cli5stateNtB7_9GateGroup6rollup0B9_
FN:723,_RNCNvMs4_NtCsadPz79N6wDl_11calypso_cli5stateNtB7_9GateGroup6rollups_0B9_
FN:215,_RNCNvMs_NtCsadPz79N6wDl_11calypso_cli5stateNtB6_12FeatureState13from_template0B8_
FN:248,_RNCNvMs_NtCsadPz79N6wDl_11calypso_cli5stateNtB6_12FeatureState14evaluate_gates0B8_
FN:277,_RNCNvMs_NtCsadPz79N6wDl_11calypso_cli5stateNtB6_12FeatureState17blocking_gate_ids0B8_
FN:279,_RNCNvMs_NtCsadPz79N6wDl_11calypso_cli5stateNtB6_12FeatureState17blocking_gate_idss0_0B8_
FN:278,_RNCNvMs_NtCsadPz79N6wDl_11calypso_cli5stateNtB6_12FeatureState17blocking_gate_idss_0B8_
FN:290,_RNCNvMs_NtCsadPz79N6wDl_11calypso_cli5stateNtB6_12FeatureState22pull_request_checklist0B8_
FN:292,_RNCNvMs_NtCsadPz79N6wDl_11calypso_cli5stateNtB6_12FeatureState22pull_request_checklists_0B8_
FN:94,_RNvMNtCsadPz79N6wDl_11calypso_cli5stateNtB2_15RepositoryState12save_to_path
FN:101,_RNvMNtCsadPz79N6wDl_11calypso_cli5stateNtB2_15RepositoryState14load_from_path
FN:85,_RNvMNtCsadPz79N6wDl_11calypso_cli5stateNtB2_15RepositoryState14to_json_pretty
FN:89,_RNvMNtCsadPz79N6wDl_11calypso_cli5stateNtB2_15RepositoryState9from_json
FN:424,_RNvMs0_NtCsadPz79N6wDl_11calypso_cli5stateNtB5_13WorkflowState11is_terminal
FN:429,_RNvMs0_NtCsadPz79N6wDl_11calypso_cli5stateNtB5_13WorkflowState17all_active_states
FN:443,_RNvMs0_NtCsadPz79N6wDl_11calypso_cli5stateNtB5_13WorkflowState17valid_next_states
FN:597,_RNvMs0_NtCsadPz79N6wDl_11calypso_cli5stateNtB5_13WorkflowState19validate_transition
FN:466,_RNvMs0_NtCsadPz79N6wDl_11calypso_cli5stateNtB5_13WorkflowState21available_transitions
FN:382,_RNvMs0_NtCsadPz79N6wDl_11calypso_cli5stateNtB5_13WorkflowState24from_template_state_name
FN:613,_RNvMs0_NtCsadPz79N6wDl_11calypso_cli5stateNtB5_13WorkflowState25missing_transition_reason
FN:404,_RNvMs0_NtCsadPz79N6wDl_11calypso_cli5stateNtB5_13WorkflowState6as_str
FN:728,_RNvMs4_NtCsadPz79N6wDl_11calypso_cli5stateNtB5_9GateGroup13rollup_status
FN:714,_RNvMs4_NtCsadPz79N6wDl_11calypso_cli5stateNtB5_9GateGroup6rollup
FN:905,_RNvMs9_NtCsadPz79N6wDl_11calypso_cli5stateNtB5_15BuiltinEvidence10result_for
FN:913,_RNvMs9_NtCsadPz79N6wDl_11calypso_cli5stateNtB5_15BuiltinEvidence10status_for
FN:888,_RNvMs9_NtCsadPz79N6wDl_11calypso_cli5stateNtB5_15BuiltinEvidence11with_result
FN:900,_RNvMs9_NtCsadPz79N6wDl_11calypso_cli5stateNtB5_15BuiltinEvidence11with_status
FN:884,_RNvMs9_NtCsadPz79N6wDl_11calypso_cli5stateNtB5_15BuiltinEvidence3new
FN:917,_RNvMs9_NtCsadPz79N6wDl_11calypso_cli5stateNtB5_15BuiltinEvidence5merge
FN:193,_RNvMs_NtCsadPz79N6wDl_11calypso_cli5stateNtB4_12FeatureState13from_template
FN:303,_RNvMs_NtCsadPz79N6wDl_11calypso_cli5stateNtB4_12FeatureState13transition_to
FN:239,_RNvMs_NtCsadPz79N6wDl_11calypso_cli5stateNtB4_12FeatureState14evaluate_gates
FN:274,_RNvMs_NtCsadPz79N6wDl_11calypso_cli5stateNtB4_12FeatureState17blocking_gate_ids
FN:283,_RNvMs_NtCsadPz79N6wDl_11calypso_cli5stateNtB4_12FeatureState18gate_group_rollups
FN:299,_RNvMs_NtCsadPz79N6wDl_11calypso_cli5stateNtB4_12FeatureState21available_transitions
FN:287,_RNvMs_NtCsadPz79N6wDl_11calypso_cli5stateNtB4_12FeatureState22pull_request_checklist
FN:992,_RNvMsc_NtCsadPz79N6wDl_11calypso_cli5stateNtB5_12ReleaseState11is_terminal
FN:984,_RNvMsc_NtCsadPz79N6wDl_11calypso_cli5stateNtB5_12ReleaseState16rejection_reason
FN:960,_RNvMsc_NtCsadPz79N6wDl_11calypso_cli5stateNtB5_12ReleaseState17valid_next_states
FN:973,_RNvMsc_NtCsadPz79N6wDl_11calypso_cli5stateNtB5_12ReleaseState19validate_transition
FN:1079,_RNvMsg_NtCsadPz79N6wDl_11calypso_cli5stateNtB5_15DeploymentState17valid_next_states
FN:1092,_RNvMsg_NtCsadPz79N6wDl_11calypso_cli5stateNtB5_15DeploymentState19validate_transition
FN:1210,_RNvMsk_NtCsadPz79N6wDl_11calypso_cli5stateNtB5_16DevelopmentPhase17can_transition_to
FN:1201,_RNvMsk_NtCsadPz79N6wDl_11calypso_cli5stateNtB5_16DevelopmentPhase17valid_next_phases
FN:1192,_RNvMsk_NtCsadPz79N6wDl_11calypso_cli5stateNtB5_16DevelopmentPhase6as_str
FN:1215,_RNvMsk_NtCsadPz79N6wDl_11calypso_cli5stateNtB5_16DevelopmentPhase7is_init
FN:188,_RNvNtCsadPz79N6wDl_11calypso_cli5state20default_feature_type
FN:80,_RNvNtCsadPz79N6wDl_11calypso_cli5state22default_schema_version
FN:656,_RNvXs1_NtCsadPz79N6wDl_11calypso_cli5stateNtB5_13WorkflowStateNtNtCs3XFJfFEDSOQ_4core3fmt7Display3fmt
FN:695,_RNvXs2_NtCsadPz79N6wDl_11calypso_cli5stateNtB5_15TransitionErrorNtNtCs3XFJfFEDSOQ_4core3fmt7Display3fmt
FN:839,_RNvXs5_NtCsadPz79N6wDl_11calypso_cli5stateNtB5_10StateErrorNtNtCs3XFJfFEDSOQ_4core3fmt7Display3fmt
FN:855,_RNvXs7_NtCsadPz79N6wDl_11calypso_cli5stateNtB5_23GateInitializationErrorNtNtCs3XFJfFEDSOQ_4core3fmt7Display3fmt
FN:929,_RNvXsa_NtCsadPz79N6wDl_11calypso_cli5stateNtB5_19GateEvaluationErrorNtNtCs3XFJfFEDSOQ_4core3fmt7Display3fmt
FN:998,_RNvXsd_NtCsadPz79N6wDl_11calypso_cli5stateNtB5_12ReleaseStateNtNtCs3XFJfFEDSOQ_4core3fmt7Display3fmt
FN:1046,_RNvXse_NtCsadPz79N6wDl_11calypso_cli5stateNtB5_22ReleaseTransitionErrorNtNtCs3XFJfFEDSOQ_4core3fmt7Display3fmt
FN:1105,_RNvXsh_NtCsadPz79N6wDl_11calypso_cli5stateNtB5_15DeploymentStateNtNtCs3XFJfFEDSOQ_4core3fmt7Display3fmt
FN:1155,_RNvXsi_NtCsadPz79N6wDl_11calypso_cli5stateNtB5_25DeploymentTransitionErrorNtNtCs3XFJfFEDSOQ_4core3fmt7Display3fmt
FN:1221,_RNvXsl_NtCsadPz79N6wDl_11calypso_cli5stateNtB5_16DevelopmentPhaseNtNtCs3XFJfFEDSOQ_4core3fmt7Display3fmt
FN:101,_RNvMNtCsk43tzqYvrEx_11calypso_cli5stateNtB2_15RepositoryState14load_from_path
FN:89,_RNvMNtCsk43tzqYvrEx_11calypso_cli5stateNtB2_15RepositoryState9from_json
FN:424,_RNvMs0_NtCsk43tzqYvrEx_11calypso_cli5stateNtB5_13WorkflowState11is_terminal
FN:429,_RNvMs0_NtCsk43tzqYvrEx_11calypso_cli5stateNtB5_13WorkflowState17all_active_states
FN:443,_RNvMs0_NtCsk43tzqYvrEx_11calypso_cli5stateNtB5_13WorkflowState17valid_next_states
FN:597,_RNvMs0_NtCsk43tzqYvrEx_11calypso_cli5stateNtB5_13WorkflowState19validate_transition
FN:466,_RNvMs0_NtCsk43tzqYvrEx_11calypso_cli5stateNtB5_13WorkflowState21available_transitions
FN:382,_RNvMs0_NtCsk43tzqYvrEx_11calypso_cli5stateNtB5_13WorkflowState24from_template_state_name
FN:613,_RNvMs0_NtCsk43tzqYvrEx_11calypso_cli5stateNtB5_13WorkflowState25missing_transition_reason
FN:404,_RNvMs0_NtCsk43tzqYvrEx_11calypso_cli5stateNtB5_13WorkflowState6as_str
FN:728,_RNvMs4_NtCsk43tzqYvrEx_11calypso_cli5stateNtB5_9GateGroup13rollup_status
FN:905,_RNvMs9_NtCsk43tzqYvrEx_11calypso_cli5stateNtB5_15BuiltinEvidence10result_for
FN:913,_RNvMs9_NtCsk43tzqYvrEx_11calypso_cli5stateNtB5_15BuiltinEvidence10status_for
FN:888,_RNvMs9_NtCsk43tzqYvrEx_11calypso_cli5stateNtB5_15BuiltinEvidence11with_result
FN:900,_RNvMs9_NtCsk43tzqYvrEx_11calypso_cli5stateNtB5_15BuiltinEvidence11with_status
FN:884,_RNvMs9_NtCsk43tzqYvrEx_11calypso_cli5stateNtB5_15BuiltinEvidence3new
FN:917,_RNvMs9_NtCsk43tzqYvrEx_11calypso_cli5stateNtB5_15BuiltinEvidence5merge
FN:193,_RNvMs_NtCsk43tzqYvrEx_11calypso_cli5stateNtB4_12FeatureState13from_template
FN:303,_RNvMs_NtCsk43tzqYvrEx_11calypso_cli5stateNtB4_12FeatureState13transition_to
FN:239,_RNvMs_NtCsk43tzqYvrEx_11calypso_cli5stateNtB4_12FeatureState14evaluate_gates
FN:274,_RNvMs_NtCsk43tzqYvrEx_11calypso_cli5stateNtB4_12FeatureState17blocking_gate_ids
FN:188,_RNvNtCsk43tzqYvrEx_11calypso_cli5state20default_feature_type
FN:80,_RNvNtCsk43tzqYvrEx_11calypso_cli5state22default_schema_version
FN:839,_RNvXs5_NtCsk43tzqYvrEx_11calypso_cli5stateNtB5_10StateErrorNtNtCs3XFJfFEDSOQ_4core3fmt7Display3fmt
FN:929,_RNvXsa_NtCsk43tzqYvrEx_11calypso_cli5stateNtB5_19GateEvaluationErrorNtNtCs3XFJfFEDSOQ_4core3fmt7Display3fmt
FN:221,_RNCNCNvMs_NtCsk43tzqYvrEx_11calypso_cli5stateNtB8_12FeatureState13from_template00Ba_
FN:732,_RNCNvMs4_NtCsk43tzqYvrEx_11calypso_cli5stateNtB7_9GateGroup13rollup_status0B9_
FN:744,_RNCNvMs4_NtCsk43tzqYvrEx_11calypso_cli5stateNtB7_9GateGroup13rollup_statuss0_0B9_
FN:738,_RNCNvMs4_NtCsk43tzqYvrEx_11calypso_cli5stateNtB7_9GateGroup13rollup_statuss_0B9_
FN:215,_RNCNvMs_NtCsk43tzqYvrEx_11calypso_cli5stateNtB6_12FeatureState13from_template0B8_
FN:248,_RNCNvMs_NtCsk43tzqYvrEx_11calypso_cli5stateNtB6_12FeatureState14evaluate_gates0B8_
FN:277,_RNCNvMs_NtCsk43tzqYvrEx_11calypso_cli5stateNtB6_12FeatureState17blocking_gate_ids0B8_
FN:279,_RNCNvMs_NtCsk43tzqYvrEx_11calypso_cli5stateNtB6_12FeatureState17blocking_gate_idss0_0B8_
FN:278,_RNCNvMs_NtCsk43tzqYvrEx_11calypso_cli5stateNtB6_12FeatureState17blocking_gate_idss_0B8_
FN:722,_RNCNvMs4_NtCsk43tzqYvrEx_11calypso_cli5stateNtB7_9GateGroup6rollup0B9_
FN:723,_RNCNvMs4_NtCsk43tzqYvrEx_11calypso_cli5stateNtB7_9GateGroup6rollups_0B9_
FN:290,_RNCNvMs_NtCsk43tzqYvrEx_11calypso_cli5stateNtB6_12FeatureState22pull_request_checklist0B8_
FN:292,_RNCNvMs_NtCsk43tzqYvrEx_11calypso_cli5stateNtB6_12FeatureState22pull_request_checklists_0B8_
FN:94,_RNvMNtCsk43tzqYvrEx_11calypso_cli5stateNtB2_15RepositoryState12save_to_path
FN:85,_RNvMNtCsk43tzqYvrEx_11calypso_cli5stateNtB2_15RepositoryState14to_json_pretty
FN:714,_RNvMs4_NtCsk43tzqYvrEx_11calypso_cli5stateNtB5_9GateGroup6rollup
FN:283,_RNvMs_NtCsk43tzqYvrEx_11calypso_cli5stateNtB4_12FeatureState18gate_group_rollups
FN:299,_RNvMs_NtCsk43tzqYvrEx_11calypso_cli5stateNtB4_12FeatureState21available_transitions
FN:287,_RNvMs_NtCsk43tzqYvrEx_11calypso_cli5stateNtB4_12FeatureState22pull_request_checklist
FN:992,_RNvMsc_NtCsk43tzqYvrEx_11calypso_cli5stateNtB5_12ReleaseState11is_terminal
FN:984,_RNvMsc_NtCsk43tzqYvrEx_11calypso_cli5stateNtB5_12ReleaseState16rejection_reason
FN:960,_RNvMsc_NtCsk43tzqYvrEx_11calypso_cli5stateNtB5_12ReleaseState17valid_next_states
FN:973,_RNvMsc_NtCsk43tzqYvrEx_11calypso_cli5stateNtB5_12ReleaseState19validate_transition
FN:1079,_RNvMsg_NtCsk43tzqYvrEx_11calypso_cli5stateNtB5_15DeploymentState17valid_next_states
FN:1092,_RNvMsg_NtCsk43tzqYvrEx_11calypso_cli5stateNtB5_15DeploymentState19validate_transition
FN:1210,_RNvMsk_NtCsk43tzqYvrEx_11calypso_cli5stateNtB5_16DevelopmentPhase17can_transition_to
FN:1201,_RNvMsk_NtCsk43tzqYvrEx_11calypso_cli5stateNtB5_16DevelopmentPhase17valid_next_phases
FN:1192,_RNvMsk_NtCsk43tzqYvrEx_11calypso_cli5stateNtB5_16DevelopmentPhase6as_str
FN:1215,_RNvMsk_NtCsk43tzqYvrEx_11calypso_cli5stateNtB5_16DevelopmentPhase7is_init
FN:656,_RNvXs1_NtCsk43tzqYvrEx_11calypso_cli5stateNtB5_13WorkflowStateNtNtCs3XFJfFEDSOQ_4core3fmt7Display3fmt
FN:695,_RNvXs2_NtCsk43tzqYvrEx_11calypso_cli5stateNtB5_15TransitionErrorNtNtCs3XFJfFEDSOQ_4core3fmt7Display3fmt
FN:855,_RNvXs7_NtCsk43tzqYvrEx_11calypso_cli5stateNtB5_23GateInitializationErrorNtNtCs3XFJfFEDSOQ_4core3fmt7Display3fmt
FN:998,_RNvXsd_NtCsk43tzqYvrEx_11calypso_cli5stateNtB5_12ReleaseStateNtNtCs3XFJfFEDSOQ_4core3fmt7Display3fmt
FN:1046,_RNvXse_NtCsk43tzqYvrEx_11calypso_cli5stateNtB5_22ReleaseTransitionErrorNtNtCs3XFJfFEDSOQ_4core3fmt7Display3fmt
FN:1105,_RNvXsh_NtCsk43tzqYvrEx_11calypso_cli5stateNtB5_15DeploymentStateNtNtCs3XFJfFEDSOQ_4core3fmt7Display3fmt
FN:1155,_RNvXsi_NtCsk43tzqYvrEx_11calypso_cli5stateNtB5_25DeploymentTransitionErrorNtNtCs3XFJfFEDSOQ_4core3fmt7Display3fmt
FN:1221,_RNvXsl_NtCsk43tzqYvrEx_11calypso_cli5stateNtB5_16DevelopmentPhaseNtNtCs3XFJfFEDSOQ_4core3fmt7Display3fmt
FNDA:513,_RNCNCNvMs_NtCsadPz79N6wDl_11calypso_cli5stateNtB8_12FeatureState13from_template00Ba_
FNDA:147,_RNCNvMs4_NtCsadPz79N6wDl_11calypso_cli5stateNtB7_9GateGroup13rollup_status0B9_
FNDA:46,_RNCNvMs4_NtCsadPz79N6wDl_11calypso_cli5stateNtB7_9GateGroup13rollup_statuss0_0B9_
FNDA:97,_RNCNvMs4_NtCsadPz79N6wDl_11calypso_cli5stateNtB7_9GateGroup13rollup_statuss_0B9_
FNDA:37,_RNCNvMs4_NtCsadPz79N6wDl_11calypso_cli5stateNtB7_9GateGroup6rollup0B9_
FNDA:31,_RNCNvMs4_NtCsadPz79N6wDl_11calypso_cli5stateNtB7_9GateGroup6rollups_0B9_
FNDA:233,_RNCNvMs_NtCsadPz79N6wDl_11calypso_cli5stateNtB6_12FeatureState13from_template0B8_
FNDA:1,_RNCNvMs_NtCsadPz79N6wDl_11calypso_cli5stateNtB6_12FeatureState14evaluate_gates0B8_
FNDA:128,_RNCNvMs_NtCsadPz79N6wDl_11calypso_cli5stateNtB6_12FeatureState17blocking_gate_ids0B8_
FNDA:106,_RNCNvMs_NtCsadPz79N6wDl_11calypso_cli5stateNtB6_12FeatureState17blocking_gate_idss0_0B8_
FNDA:171,_RNCNvMs_NtCsadPz79N6wDl_11calypso_cli5stateNtB6_12FeatureState17blocking_gate_idss_0B8_
FNDA:28,_RNCNvMs_NtCsadPz79N6wDl_11calypso_cli5stateNtB6_12FeatureState22pull_request_checklist0B8_
FNDA:57,_RNCNvMs_NtCsadPz79N6wDl_11calypso_cli5stateNtB6_12FeatureState22pull_request_checklists_0B8_
FNDA:46,_RNvMNtCsadPz79N6wDl_11calypso_cli5stateNtB2_15RepositoryState12save_to_path
FNDA:43,_RNvMNtCsadPz79N6wDl_11calypso_cli5stateNtB2_15RepositoryState14load_from_path
FNDA:52,_RNvMNtCsadPz79N6wDl_11calypso_cli5stateNtB2_15RepositoryState14to_json_pretty
FNDA:43,_RNvMNtCsadPz79N6wDl_11calypso_cli5stateNtB2_15RepositoryState9from_json
FNDA:16,_RNvMs0_NtCsadPz79N6wDl_11calypso_cli5stateNtB5_13WorkflowState11is_terminal
FNDA:4,_RNvMs0_NtCsadPz79N6wDl_11calypso_cli5stateNtB5_13WorkflowState17all_active_states
FNDA:19,_RNvMs0_NtCsadPz79N6wDl_11calypso_cli5stateNtB5_13WorkflowState17valid_next_states
FNDA:114,_RNvMs0_NtCsadPz79N6wDl_11calypso_cli5stateNtB5_13WorkflowState19validate_transition
FNDA:123,_RNvMs0_NtCsadPz79N6wDl_11calypso_cli5stateNtB5_13WorkflowState21available_transitions
FNDA:34,_RNvMs0_NtCsadPz79N6wDl_11calypso_cli5stateNtB5_13WorkflowState24from_template_state_name
FNDA:41,_RNvMs0_NtCsadPz79N6wDl_11calypso_cli5stateNtB5_13WorkflowState25missing_transition_reason
FNDA:132,_RNvMs0_NtCsadPz79N6wDl_11calypso_cli5stateNtB5_13WorkflowState6as_str
FNDA:118,_RNvMs4_NtCsadPz79N6wDl_11calypso_cli5stateNtB5_9GateGroup13rollup_status
FNDA:22,_RNvMs4_NtCsadPz79N6wDl_11calypso_cli5stateNtB5_9GateGroup6rollup
FNDA:14,_RNvMs9_NtCsadPz79N6wDl_11calypso_cli5stateNtB5_15BuiltinEvidence10result_for
FNDA:155,_RNvMs9_NtCsadPz79N6wDl_11calypso_cli5stateNtB5_15BuiltinEvidence10status_for
FNDA:53,_RNvMs9_NtCsadPz79N6wDl_11calypso_cli5stateNtB5_15BuiltinEvidence11with_result
FNDA:14,_RNvMs9_NtCsadPz79N6wDl_11calypso_cli5stateNtB5_15BuiltinEvidence11with_status
FNDA:19,_RNvMs9_NtCsadPz79N6wDl_11calypso_cli5stateNtB5_15BuiltinEvidence3new
FNDA:4,_RNvMs9_NtCsadPz79N6wDl_11calypso_cli5stateNtB5_15BuiltinEvidence5merge
FNDA:34,_RNvMs_NtCsadPz79N6wDl_11calypso_cli5stateNtB4_12FeatureState13from_template
FNDA:7,_RNvMs_NtCsadPz79N6wDl_11calypso_cli5stateNtB4_12FeatureState13transition_to
FNDA:11,_RNvMs_NtCsadPz79N6wDl_11calypso_cli5stateNtB4_12FeatureState14evaluate_gates
FNDA:65,_RNvMs_NtCsadPz79N6wDl_11calypso_cli5stateNtB4_12FeatureState17blocking_gate_ids
FNDA:1,_RNvMs_NtCsadPz79N6wDl_11calypso_cli5stateNtB4_12FeatureState18gate_group_rollups
FNDA:0,_RNvMs_NtCsadPz79N6wDl_11calypso_cli5stateNtB4_12FeatureState21available_transitions
FNDA:8,_RNvMs_NtCsadPz79N6wDl_11calypso_cli5stateNtB4_12FeatureState22pull_request_checklist
FNDA:8,_RNvMsc_NtCsadPz79N6wDl_11calypso_cli5stateNtB5_12ReleaseState11is_terminal
FNDA:5,_RNvMsc_NtCsadPz79N6wDl_11calypso_cli5stateNtB5_12ReleaseState16rejection_reason
FNDA:24,_RNvMsc_NtCsadPz79N6wDl_11calypso_cli5stateNtB5_12ReleaseState17valid_next_states
FNDA:14,_RNvMsc_NtCsadPz79N6wDl_11calypso_cli5stateNtB5_12ReleaseState19validate_transition
FNDA:15,_RNvMsg_NtCsadPz79N6wDl_11calypso_cli5stateNtB5_15DeploymentState17valid_next_states
FNDA:15,_RNvMsg_NtCsadPz79N6wDl_11calypso_cli5stateNtB5_15DeploymentState19validate_transition
FNDA:0,_RNvMsk_NtCsadPz79N6wDl_11calypso_cli5stateNtB5_16DevelopmentPhase17can_transition_to
FNDA:0,_RNvMsk_NtCsadPz79N6wDl_11calypso_cli5stateNtB5_16DevelopmentPhase17valid_next_phases
FNDA:0,_RNvMsk_NtCsadPz79N6wDl_11calypso_cli5stateNtB5_16DevelopmentPhase6as_str
FNDA:0,_RNvMsk_NtCsadPz79N6wDl_11calypso_cli5stateNtB5_16DevelopmentPhase7is_init
FNDA:14,_RNvNtCsadPz79N6wDl_11calypso_cli5state20default_feature_type
FNDA:3,_RNvNtCsadPz79N6wDl_11calypso_cli5state22default_schema_version
FNDA:38,_RNvXs1_NtCsadPz79N6wDl_11calypso_cli5stateNtB5_13WorkflowStateNtNtCs3XFJfFEDSOQ_4core3fmt7Display3fmt
FNDA:19,_RNvXs2_NtCsadPz79N6wDl_11calypso_cli5stateNtB5_15TransitionErrorNtNtCs3XFJfFEDSOQ_4core3fmt7Display3fmt
FNDA:9,_RNvXs5_NtCsadPz79N6wDl_11calypso_cli5stateNtB5_10StateErrorNtNtCs3XFJfFEDSOQ_4core3fmt7Display3fmt
FNDA:2,_RNvXs7_NtCsadPz79N6wDl_11calypso_cli5stateNtB5_23GateInitializationErrorNtNtCs3XFJfFEDSOQ_4core3fmt7Display3fmt
FNDA:1,_RNvXsa_NtCsadPz79N6wDl_11calypso_cli5stateNtB5_19GateEvaluationErrorNtNtCs3XFJfFEDSOQ_4core3fmt7Display3fmt
FNDA:10,_RNvXsd_NtCsadPz79N6wDl_11calypso_cli5stateNtB5_12ReleaseStateNtNtCs3XFJfFEDSOQ_4core3fmt7Display3fmt
FNDA:5,_RNvXse_NtCsadPz79N6wDl_11calypso_cli5stateNtB5_22ReleaseTransitionErrorNtNtCs3XFJfFEDSOQ_4core3fmt7Display3fmt
FNDA:6,_RNvXsh_NtCsadPz79N6wDl_11calypso_cli5stateNtB5_15DeploymentStateNtNtCs3XFJfFEDSOQ_4core3fmt7Display3fmt
FNDA:3,_RNvXsi_NtCsadPz79N6wDl_11calypso_cli5stateNtB5_25DeploymentTransitionErrorNtNtCs3XFJfFEDSOQ_4core3fmt7Display3fmt
FNDA:0,_RNvXsl_NtCsadPz79N6wDl_11calypso_cli5stateNtB5_16DevelopmentPhaseNtNtCs3XFJfFEDSOQ_4core3fmt7Display3fmt
FNDA:0,_RNvMNtCsk43tzqYvrEx_11calypso_cli5stateNtB2_15RepositoryState14load_from_path
FNDA:0,_RNvMNtCsk43tzqYvrEx_11calypso_cli5stateNtB2_15RepositoryState9from_json
FNDA:0,_RNvMs0_NtCsk43tzqYvrEx_11calypso_cli5stateNtB5_13WorkflowState11is_terminal
FNDA:0,_RNvMs0_NtCsk43tzqYvrEx_11calypso_cli5stateNtB5_13WorkflowState17all_active_states
FNDA:1,_RNvMs0_NtCsk43tzqYvrEx_11calypso_cli5stateNtB5_13WorkflowState17valid_next_states
FNDA:1,_RNvMs0_NtCsk43tzqYvrEx_11calypso_cli5stateNtB5_13WorkflowState19validate_transition
FNDA:1,_RNvMs0_NtCsk43tzqYvrEx_11calypso_cli5stateNtB5_13WorkflowState21available_transitions
FNDA:7,_RNvMs0_NtCsk43tzqYvrEx_11calypso_cli5stateNtB5_13WorkflowState24from_template_state_name
FNDA:0,_RNvMs0_NtCsk43tzqYvrEx_11calypso_cli5stateNtB5_13WorkflowState25missing_transition_reason
FNDA:6,_RNvMs0_NtCsk43tzqYvrEx_11calypso_cli5stateNtB5_13WorkflowState6as_str
FNDA:1,_RNvMs4_NtCsk43tzqYvrEx_11calypso_cli5stateNtB5_9GateGroup13rollup_status
FNDA:11,_RNvMs9_NtCsk43tzqYvrEx_11calypso_cli5stateNtB5_15BuiltinEvidence10result_for
FNDA:0,_RNvMs9_NtCsk43tzqYvrEx_11calypso_cli5stateNtB5_15BuiltinEvidence10status_for
FNDA:15,_RNvMs9_NtCsk43tzqYvrEx_11calypso_cli5stateNtB5_15BuiltinEvidence11with_result
FNDA:0,_RNvMs9_NtCsk43tzqYvrEx_11calypso_cli5stateNtB5_15BuiltinEvidence11with_status
FNDA:9,_RNvMs9_NtCsk43tzqYvrEx_11calypso_cli5stateNtB5_15BuiltinEvidence3new
FNDA:0,_RNvMs9_NtCsk43tzqYvrEx_11calypso_cli5stateNtB5_15BuiltinEvidence5merge
FNDA:7,_RNvMs_NtCsk43tzqYvrEx_11calypso_cli5stateNtB4_12FeatureState13from_template
FNDA:1,_RNvMs_NtCsk43tzqYvrEx_11calypso_cli5stateNtB4_12FeatureState13transition_to
FNDA:6,_RNvMs_NtCsk43tzqYvrEx_11calypso_cli5stateNtB4_12FeatureState14evaluate_gates
FNDA:5,_RNvMs_NtCsk43tzqYvrEx_11calypso_cli5stateNtB4_12FeatureState17blocking_gate_ids
FNDA:0,_RNvNtCsk43tzqYvrEx_11calypso_cli5state20default_feature_type
FNDA:0,_RNvNtCsk43tzqYvrEx_11calypso_cli5state22default_schema_version
FNDA:0,_RNvXs5_NtCsk43tzqYvrEx_11calypso_cli5stateNtB5_10StateErrorNtNtCs3XFJfFEDSOQ_4core3fmt7Display3fmt
FNDA:1,_RNvXsa_NtCsk43tzqYvrEx_11calypso_cli5stateNtB5_19GateEvaluationErrorNtNtCs3XFJfFEDSOQ_4core3fmt7Display3fmt
FNDA:21,_RNCNCNvMs_NtCsk43tzqYvrEx_11calypso_cli5stateNtB8_12FeatureState13from_template00Ba_
FNDA:1,_RNCNvMs4_NtCsk43tzqYvrEx_11calypso_cli5stateNtB7_9GateGroup13rollup_status0B9_
FNDA:0,_RNCNvMs4_NtCsk43tzqYvrEx_11calypso_cli5stateNtB7_9GateGroup13rollup_statuss0_0B9_
FNDA:0,_RNCNvMs4_NtCsk43tzqYvrEx_11calypso_cli5stateNtB7_9GateGroup13rollup_statuss_0B9_
FNDA:21,_RNCNvMs_NtCsk43tzqYvrEx_11calypso_cli5stateNtB6_12FeatureState13from_template0B8_
FNDA:1,_RNCNvMs_NtCsk43tzqYvrEx_11calypso_cli5stateNtB6_12FeatureState14evaluate_gates0B8_
FNDA:12,_RNCNvMs_NtCsk43tzqYvrEx_11calypso_cli5stateNtB6_12FeatureState17blocking_gate_ids0B8_
FNDA:12,_RNCNvMs_NtCsk43tzqYvrEx_11calypso_cli5stateNtB6_12FeatureState17blocking_gate_idss0_0B8_
FNDA:12,_RNCNvMs_NtCsk43tzqYvrEx_11calypso_cli5stateNtB6_12FeatureState17blocking_gate_idss_0B8_
FNDA:0,_RNCNvMs4_NtCsk43tzqYvrEx_11calypso_cli5stateNtB7_9GateGroup6rollup0B9_
FNDA:0,_RNCNvMs4_NtCsk43tzqYvrEx_11calypso_cli5stateNtB7_9GateGroup6rollups_0B9_
FNDA:0,_RNCNvMs_NtCsk43tzqYvrEx_11calypso_cli5stateNtB6_12FeatureState22pull_request_checklist0B8_
FNDA:0,_RNCNvMs_NtCsk43tzqYvrEx_11calypso_cli5stateNtB6_12FeatureState22pull_request_checklists_0B8_
FNDA:0,_RNvMNtCsk43tzqYvrEx_11calypso_cli5stateNtB2_15RepositoryState12save_to_path
FNDA:0,_RNvMNtCsk43tzqYvrEx_11calypso_cli5stateNtB2_15RepositoryState14to_json_pretty
FNDA:0,_RNvMs4_NtCsk43tzqYvrEx_11calypso_cli5stateNtB5_9GateGroup6rollup
FNDA:0,_RNvMs_NtCsk43tzqYvrEx_11calypso_cli5stateNtB4_12FeatureState18gate_group_rollups
FNDA:0,_RNvMs_NtCsk43tzqYvrEx_11calypso_cli5stateNtB4_12FeatureState21available_transitions
FNDA:0,_RNvMs_NtCsk43tzqYvrEx_11calypso_cli5stateNtB4_12FeatureState22pull_request_checklist
FNDA:0,_RNvMsc_NtCsk43tzqYvrEx_11calypso_cli5stateNtB5_12ReleaseState11is_terminal
FNDA:0,_RNvMsc_NtCsk43tzqYvrEx_11calypso_cli5stateNtB5_12ReleaseState16rejection_reason
FNDA:0,_RNvMsc_NtCsk43tzqYvrEx_11calypso_cli5stateNtB5_12ReleaseState17valid_next_states
FNDA:0,_RNvMsc_NtCsk43tzqYvrEx_11calypso_cli5stateNtB5_12ReleaseState19validate_transition
FNDA:0,_RNvMsg_NtCsk43tzqYvrEx_11calypso_cli5stateNtB5_15DeploymentState17valid_next_states
FNDA:0,_RNvMsg_NtCsk43tzqYvrEx_11calypso_cli5stateNtB5_15DeploymentState19validate_transition
FNDA:0,_RNvMsk_NtCsk43tzqYvrEx_11calypso_cli5stateNtB5_16DevelopmentPhase17can_transition_to
FNDA:0,_RNvMsk_NtCsk43tzqYvrEx_11calypso_cli5stateNtB5_16DevelopmentPhase17valid_next_phases
FNDA:0,_RNvMsk_NtCsk43tzqYvrEx_11calypso_cli5stateNtB5_16DevelopmentPhase6as_str
FNDA:0,_RNvMsk_NtCsk43tzqYvrEx_11calypso_cli5stateNtB5_16DevelopmentPhase7is_init
FNDA:0,_RNvXs1_NtCsk43tzqYvrEx_11calypso_cli5stateNtB5_13WorkflowStateNtNtCs3XFJfFEDSOQ_4core3fmt7Display3fmt
FNDA:0,_RNvXs2_NtCsk43tzqYvrEx_11calypso_cli5stateNtB5_15TransitionErrorNtNtCs3XFJfFEDSOQ_4core3fmt7Display3fmt
FNDA:0,_RNvXs7_NtCsk43tzqYvrEx_11calypso_cli5stateNtB5_23GateInitializationErrorNtNtCs3XFJfFEDSOQ_4core3fmt7Display3fmt
FNDA:0,_RNvXsd_NtCsk43tzqYvrEx_11calypso_cli5stateNtB5_12ReleaseStateNtNtCs3XFJfFEDSOQ_4core3fmt7Display3fmt
FNDA:0,_RNvXse_NtCsk43tzqYvrEx_11calypso_cli5stateNtB5_22ReleaseTransitionErrorNtNtCs3XFJfFEDSOQ_4core3fmt7Display3fmt
FNDA:0,_RNvXsh_NtCsk43tzqYvrEx_11calypso_cli5stateNtB5_15DeploymentStateNtNtCs3XFJfFEDSOQ_4core3fmt7Display3fmt
FNDA:0,_RNvXsi_NtCsk43tzqYvrEx_11calypso_cli5stateNtB5_25DeploymentTransitionErrorNtNtCs3XFJfFEDSOQ_4core3fmt7Display3fmt
FNDA:0,_RNvXsl_NtCsk43tzqYvrEx_11calypso_cli5stateNtB5_16DevelopmentPhaseNtNtCs3XFJfFEDSOQ_4core3fmt7Display3fmt
FNF:62
FNH:56
DA:80,3
DA:81,3
DA:82,3
DA:85,52
DA:86,52
DA:87,52
DA:89,43
DA:90,43
DA:91,43
DA:94,46
DA:95,46
DA:96,46
DA:97,46
DA:98,45
DA:99,46
DA:101,43
DA:102,43
DA:103,35
DA:104,43
DA:188,14
DA:189,14
DA:190,14
DA:193,41
DA:194,41
DA:195,41
DA:196,41
DA:197,41
DA:198,41
DA:199,41
DA:201,41
DA:202,41
DA:203,41
DA:204,41
DA:205,41
DA:206,41
DA:207,41
DA:208,41
DA:209,1
DA:210,40
DA:211,40
DA:212,40
DA:213,40
DA:214,40
DA:215,254
DA:216,254
DA:217,254
DA:218,254
DA:219,254
DA:220,254
DA:221,534
DA:222,534
DA:223,534
DA:224,534
DA:225,534
DA:226,254
DA:227,254
DA:228,40
DA:229,40
DA:230,40
DA:231,40
DA:232,40
DA:233,40
DA:234,40
DA:235,40
DA:237,41
DA:239,17
DA:240,17
DA:241,17
DA:242,17
DA:243,17
DA:244,120
DA:245,320
DA:246,217
DA:247,217
DA:248,217
DA:250,215
DA:252,153
DA:253,153
DA:254,153
DA:255,153
DA:257,153
DA:258,25
DA:259,11
DA:260,1
DA:261,2
DA:262,114
DA:265,34
DA:266,28
DA:271,15
DA:272,17
DA:274,70
DA:275,70
DA:276,70
DA:277,140
DA:278,183
DA:279,118
DA:280,70
DA:281,70
DA:283,1
DA:284,1
DA:285,1
DA:287,8
DA:288,8
DA:289,8
DA:290,28
DA:291,8
DA:292,57
DA:293,57
DA:294,57
DA:295,57
DA:296,8
DA:297,8
DA:299,0
DA:300,0
DA:301,0
DA:303,8
DA:304,8
DA:305,8
DA:306,8
DA:307,8
DA:308,8
DA:309,8
DA:310,7
DA:311,7
DA:312,8
DA:382,41
DA:383,41
DA:384,41
DA:385,11
DA:386,10
DA:387,9
DA:388,8
DA:389,7
DA:390,6
DA:391,5
DA:392,4
DA:393,3
DA:394,2
DA:396,1
DA:397,1
DA:398,1
DA:399,1
DA:400,1
DA:402,41
DA:404,138
DA:405,138
DA:406,17
DA:407,4
DA:408,4
DA:409,3
DA:410,3
DA:411,65
DA:412,7
DA:413,3
DA:414,2
DA:415,11
DA:416,9
DA:418,5
DA:419,5
DA:421,138
DA:424,16
DA:425,16
DA:426,16
DA:429,4
DA:430,4
DA:431,4
DA:432,4
DA:433,4
DA:434,4
DA:435,4
DA:436,4
DA:437,4
DA:438,4
DA:440,4
DA:443,20
DA:444,20
DA:445,2
DA:446,1
DA:447,1
DA:448,1
DA:449,1
DA:450,6
DA:451,1
DA:452,1
DA:453,1
DA:454,1
DA:455,1
DA:457,1
DA:458,4
DA:459,2
DA:461,0
DA:462,0
DA:464,20
DA:466,124
DA:467,124
DA:469,124
DA:471,17
DA:472,5
DA:473,12
DA:474,17
DA:475,2
DA:476,15
DA:477,17
DA:478,2
DA:479,15
DA:482,9
DA:483,2
DA:484,7
DA:485,9
DA:486,2
DA:487,7
DA:488,9
DA:489,2
DA:490,7
DA:493,9
DA:494,2
DA:495,7
DA:496,9
DA:497,2
DA:498,7
DA:499,9
DA:500,2
DA:501,7
DA:504,9
DA:505,2
DA:506,7
DA:507,9
DA:508,2
DA:509,7
DA:510,9
DA:511,2
DA:512,7
DA:515,9
DA:516,2
DA:517,7
DA:518,9
DA:519,2
DA:520,7
DA:521,9
DA:522,2
DA:523,7
DA:526,16
DA:527,8
DA:528,8
DA:529,16
DA:530,3
DA:531,13
DA:532,16
DA:533,4
DA:534,12
DA:537,12
DA:538,2
DA:539,10
DA:540,12
DA:541,2
DA:542,10
DA:543,12
DA:544,2
DA:545,10
DA:546,12
DA:547,2
DA:548,10
DA:551,9
DA:552,2
DA:553,7
DA:554,9
DA:555,2
DA:556,7
DA:557,9
DA:558,2
DA:559,7
DA:561,8
DA:562,8
DA:563,8
DA:565,20
DA:566,18
DA:567,16
DA:568,16
DA:569,16
DA:570,2
DA:571,2
DA:572,2
DA:573,2
DA:577,3
DA:578,1
DA:579,2
DA:580,3
DA:581,1
DA:582,2
DA:585,3
DA:586,1
DA:587,2
DA:588,3
DA:589,1
DA:590,2
DA:594,124
DA:595,124
DA:597,115
DA:598,115
DA:599,115
DA:600,115
DA:601,115
DA:602,115
DA:603,74
DA:604,41
DA:606,41
DA:607,41
DA:608,41
DA:609,41
DA:610,41
DA:611,115
DA:613,41
DA:614,41
DA:615,1
DA:616,3
DA:617,1
DA:618,1
DA:619,1
DA:620,1
DA:621,1
DA:622,1
DA:623,1
DA:624,1
DA:625,1
DA:626,1
DA:627,1
DA:628,1
DA:629,1
DA:630,1
DA:631,1
DA:632,1
DA:633,1
DA:635,1
DA:637,1
DA:638,1
DA:639,1
DA:640,1
DA:641,1
DA:642,6
DA:643,2
DA:644,1
DA:645,1
DA:647,1
DA:649,1
DA:650,2
DA:652,41
DA:656,38
DA:657,38
DA:658,38
DA:695,19
DA:696,19
DA:697,19
DA:698,19
DA:701,19
DA:714,22
DA:716,22
DA:717,22
DA:718,22
DA:719,22
DA:720,22
DA:721,22
DA:722,37
DA:723,31
DA:724,22
DA:726,22
DA:728,119
DA:729,119
DA:730,119
DA:731,119
DA:732,148
DA:734,33
DA:735,86
DA:736,86
DA:737,86
DA:738,97
DA:740,41
DA:741,45
DA:742,45
DA:743,45
DA:744,46
DA:746,7
DA:748,38
DA:750,119
DA:839,9
DA:840,9
DA:841,8
DA:842,1
DA:844,9
DA:855,2
DA:856,2
DA:857,2
DA:858,2
DA:859,2
DA:860,2
DA:864,2
DA:884,28
DA:885,28
DA:886,28
DA:888,68
DA:889,68
DA:890,68
DA:891,68
DA:892,42
DA:894,26
DA:897,68
DA:898,68
DA:900,14
DA:901,14
DA:902,14
DA:903,14
DA:905,25
DA:906,25
DA:907,12
DA:908,11
DA:909,2
DA:911,25
DA:913,155
DA:914,155
DA:915,155
DA:917,4
DA:918,4
DA:919,4
DA:920,4
DA:929,2
DA:930,2
DA:931,2
DA:932,2
DA:935,2
DA:960,24
DA:961,24
DA:962,4
DA:963,3
DA:964,3
DA:965,3
DA:966,3
DA:967,2
DA:968,6
DA:970,24
DA:973,14
DA:974,14
DA:975,9
DA:976,5
DA:977,5
DA:978,5
DA:979,5
DA:980,5
DA:981,5
DA:982,14
DA:984,5
DA:985,5
DA:986,2
DA:987,3
DA:989,5
DA:992,8
DA:993,8
DA:994,8
DA:998,10
DA:999,10
DA:1000,4
DA:1001,1
DA:1002,0
DA:1003,0
DA:1004,0
DA:1005,3
DA:1006,1
DA:1007,1
DA:1009,10
DA:1010,10
DA:1046,5
DA:1047,5
DA:1048,5
DA:1049,5
DA:1050,5
DA:1051,5
DA:1055,5
DA:1079,15
DA:1080,15
DA:1081,2
DA:1082,2
DA:1083,3
DA:1084,2
DA:1085,2
DA:1086,2
DA:1087,2
DA:1089,15
DA:1092,15
DA:1093,15
DA:1094,12
DA:1095,3
DA:1096,3
DA:1097,3
DA:1098,3
DA:1099,3
DA:1100,3
DA:1101,15
DA:1105,6
DA:1106,6
DA:1107,3
DA:1108,0
DA:1109,0
DA:1110,3
DA:1111,0
DA:1112,0
DA:1113,0
DA:1115,6
DA:1116,6
DA:1155,3
DA:1156,3
DA:1157,3
DA:1158,3
DA:1159,3
DA:1160,3
DA:1164,3
DA:1192,0
DA:1193,0
DA:1194,0
DA:1195,0
DA:1196,0
DA:1198,0
DA:1201,0
DA:1202,0
DA:1203,0
DA:1204,0
DA:1205,0
DA:1207,0
DA:1210,0
DA:1211,0
DA:1212,0
DA:1215,0
DA:1216,0
DA:1217,0
DA:1221,0
DA:1222,0
DA:1223,0
BRF:0
BRH:0
LF:544
LH:510
end_of_record
SF:/home/lucas/calypso/.claude/worktrees/agent-a62ed768/cli/src/telemetry.rs
FN:563,_RINvMsa_NtCsadPz79N6wDl_11calypso_cli9telemetryNtB6_15LogEntryBuilder5fieldNtNtCsgag4BwXrjBQ_5alloc6string6StringEB8_
FN:563,_RINvMsa_NtCsadPz79N6wDl_11calypso_cli9telemetryNtB6_15LogEntryBuilder5fieldRNtNtCsgag4BwXrjBQ_5alloc6string6StringEB8_
FN:563,_RINvMsa_NtCsadPz79N6wDl_11calypso_cli9telemetryNtB6_15LogEntryBuilder5fieldReEB8_
FN:353,_RNCNvMs8_NtCsadPz79N6wDl_11calypso_cli9telemetryNtB7_6Logger11with_writer0B9_
FN:590,_RNCNvMsa_NtCsadPz79N6wDl_11calypso_cli9telemetryNtB7_15LogEntryBuilder4emit0B9_
FN:591,_RNCNvMsa_NtCsadPz79N6wDl_11calypso_cli9telemetryNtB7_15LogEntryBuilder4emits_0B9_
FN:799,_RNCNvMsd_NtCsadPz79N6wDl_11calypso_cli9telemetryNtB7_11EventStream5drain0B9_
FN:792,_RNCNvMsd_NtCsadPz79N6wDl_11calypso_cli9telemetryNtB7_11EventStream8snapshot0B9_
FN:38,_RNvMNtCsadPz79N6wDl_11calypso_cli9telemetryNtB2_8LogLevel6as_str
FN:27,_RNvMNtCsadPz79N6wDl_11calypso_cli9telemetryNtB2_8LogLevel8from_str
FN:73,_RNvMs0_NtCsadPz79N6wDl_11calypso_cli9telemetryNtB5_9Component6as_str
FN:117,_RNvMs3_NtCsadPz79N6wDl_11calypso_cli9telemetryNtB5_8LogEvent6as_str
FN:218,_RNvMs6_NtCsadPz79N6wDl_11calypso_cli9telemetryNtB5_18CorrelationContext3new
FN:364,_RNvMs8_NtCsadPz79N6wDl_11calypso_cli9telemetryNtB5_6Logger10with_level
FN:377,_RNvMs8_NtCsadPz79N6wDl_11calypso_cli9telemetryNtB5_6Logger11with_format
FN:350,_RNvMs8_NtCsadPz79N6wDl_11calypso_cli9telemetryNtB5_6Logger11with_writer
FN:371,_RNvMs8_NtCsadPz79N6wDl_11calypso_cli9telemetryNtB5_6Logger12with_context
FN:383,_RNvMs8_NtCsadPz79N6wDl_11calypso_cli9telemetryNtB5_6Logger14with_min_level
FN:530,_RNvMs8_NtCsadPz79N6wDl_11calypso_cli9telemetryNtB5_6Logger22__with_level_and_writer
FN:498,_RNvMs8_NtCsadPz79N6wDl_11calypso_cli9telemetryNtB5_6Logger25log_level_override_notice
FN:389,_RNvMs8_NtCsadPz79N6wDl_11calypso_cli9telemetryNtB5_6Logger3log
FN:345,_RNvMs8_NtCsadPz79N6wDl_11calypso_cli9telemetryNtB5_6Logger3new
FN:482,_RNvMs8_NtCsadPz79N6wDl_11calypso_cli9telemetryNtB5_6Logger4info
FN:487,_RNvMs8_NtCsadPz79N6wDl_11calypso_cli9telemetryNtB5_6Logger4warn
FN:477,_RNvMs8_NtCsadPz79N6wDl_11calypso_cli9telemetryNtB5_6Logger5debug
FN:511,_RNvMs8_NtCsadPz79N6wDl_11calypso_cli9telemetryNtB5_6Logger5entry
FN:492,_RNvMs8_NtCsadPz79N6wDl_11calypso_cli9telemetryNtB5_6Logger5error
FN:472,_RNvMs8_NtCsadPz79N6wDl_11calypso_cli9telemetryNtB5_6Logger5trace
FN:412,_RNvMs8_NtCsadPz79N6wDl_11calypso_cli9telemetryNtB5_6Logger8log_full
FN:394,_RNvMs8_NtCsadPz79N6wDl_11calypso_cli9telemetryNtB5_6Logger9log_event
FN:522,_RNvMs8_NtCsadPz79N6wDl_11calypso_cli9telemetryNtB5_6Logger9min_level
FN:571,_RNvMsa_NtCsadPz79N6wDl_11calypso_cli9telemetryNtB5_15LogEntryBuilder10field_json
FN:589,_RNvMsa_NtCsadPz79N6wDl_11calypso_cli9telemetryNtB5_15LogEntryBuilder4emit
FN:583,_RNvMsa_NtCsadPz79N6wDl_11calypso_cli9telemetryNtB5_15LogEntryBuilder5event
FN:577,_RNvMsa_NtCsadPz79N6wDl_11calypso_cli9telemetryNtB5_15LogEntryBuilder9component
FN:684,_RNvMsc_NtCsadPz79N6wDl_11calypso_cli9telemetryNtB5_5Event12gate_changed
FN:720,_RNvMsc_NtCsadPz79N6wDl_11calypso_cli9telemetryNtB5_5Event13session_ended
FN:756,_RNvMsc_NtCsadPz79N6wDl_11calypso_cli9telemetryNtB5_5Event15github_api_call
FN:704,_RNvMsc_NtCsadPz79N6wDl_11calypso_cli9telemetryNtB5_5Event15session_started
FN:667,_RNvMsc_NtCsadPz79N6wDl_11calypso_cli9telemetryNtB5_5Event16state_transition
FN:656,_RNvMsc_NtCsadPz79N6wDl_11calypso_cli9telemetryNtB5_5Event3new
FN:740,_RNvMsc_NtCsadPz79N6wDl_11calypso_cli9telemetryNtB5_5Event6git_op
FN:779,_RNvMsd_NtCsadPz79N6wDl_11calypso_cli9telemetryNtB5_11EventStream3new
FN:784,_RNvMsd_NtCsadPz79N6wDl_11calypso_cli9telemetryNtB5_11EventStream4push
FN:796,_RNvMsd_NtCsadPz79N6wDl_11calypso_cli9telemetryNtB5_11EventStream5drain
FN:791,_RNvMsd_NtCsadPz79N6wDl_11calypso_cli9telemetryNtB5_11EventStream8snapshot
FN:283,_RNvNtCsadPz79N6wDl_11calypso_cli9telemetry11days_to_ymd
FN:265,_RNvNtCsadPz79N6wDl_11calypso_cli9telemetry11rfc3339_now
FN:242,_RNvNtCsadPz79N6wDl_11calypso_cli9telemetry12str_is_empty
FN:183,_RNvNtCsadPz79N6wDl_11calypso_cli9telemetry13is_secret_key
FN:193,_RNvNtCsadPz79N6wDl_11calypso_cli9telemetry16redact_if_secret
FN:302,_RNvNtCsadPz79N6wDl_11calypso_cli9telemetry17ansi_level_prefix
FN:161,_RNvNtCsadPz79N6wDl_11calypso_cli9telemetry6is_tty
FN:94,_RNvXs2_NtCsadPz79N6wDl_11calypso_cli9telemetryNtB5_9ComponentNtNtCs3XFJfFEDSOQ_4core3fmt7Display3fmt
FN:138,_RNvXs5_NtCsadPz79N6wDl_11calypso_cli9telemetryNtB5_8LogEventNtNtCs3XFJfFEDSOQ_4core3fmt7Display3fmt
FN:333,_RNvXs7_NtCsadPz79N6wDl_11calypso_cli9telemetryNtB5_6LoggerNtNtCs3XFJfFEDSOQ_4core3fmt5Debug3fmt
FN:541,_RNvXs9_NtCsadPz79N6wDl_11calypso_cli9telemetryNtB5_6LoggerNtNtCs3XFJfFEDSOQ_4core7default7Default7default
FN:50,_RNvXs_NtCsadPz79N6wDl_11calypso_cli9telemetryNtB4_8LogLevelNtNtCs3XFJfFEDSOQ_4core3fmt7Display3fmt
FN:634,_RNvXsb_NtCsadPz79N6wDl_11calypso_cli9telemetryNtB5_9EventKindNtNtCs3XFJfFEDSOQ_4core3fmt7Display3fmt
FN:563,_RINvMsa_NtCsk43tzqYvrEx_11calypso_cli9telemetryNtB6_15LogEntryBuilder5fieldNtNtCsgag4BwXrjBQ_5alloc6string6StringEB8_
FN:563,_RINvMsa_NtCsk43tzqYvrEx_11calypso_cli9telemetryNtB6_15LogEntryBuilder5fieldRNtNtCsgag4BwXrjBQ_5alloc6string6StringEB8_
FN:563,_RINvMsa_NtCsk43tzqYvrEx_11calypso_cli9telemetryNtB6_15LogEntryBuilder5fieldReEB8_
FN:590,_RNCNvMsa_NtCsk43tzqYvrEx_11calypso_cli9telemetryNtB7_15LogEntryBuilder4emit0B9_
FN:591,_RNCNvMsa_NtCsk43tzqYvrEx_11calypso_cli9telemetryNtB7_15LogEntryBuilder4emits_0B9_
FN:232,_RINvMs6_NtCsk43tzqYvrEx_11calypso_cli9telemetryNtB6_18CorrelationContext14with_thread_idpEB8_
FN:222,_RINvMs6_NtCsk43tzqYvrEx_11calypso_cli9telemetryNtB6_18CorrelationContext15with_feature_idpEB8_
FN:227,_RINvMs6_NtCsk43tzqYvrEx_11calypso_cli9telemetryNtB6_18CorrelationContext15with_session_idpEB8_
FN:88,_RINvXs1_NtCsk43tzqYvrEx_11calypso_cli9telemetryNtB6_9ComponentNtNtCs4MI0uZnVNTb_10serde_core3ser9Serialize9serializepEB8_
FN:132,_RINvXs4_NtCsk43tzqYvrEx_11calypso_cli9telemetryNtB6_8LogEventNtNtCs4MI0uZnVNTb_10serde_core3ser9Serialize9serializepEB8_
FN:353,_RNCNvMs8_NtCsk43tzqYvrEx_11calypso_cli9telemetryNtB7_6Logger11with_writer0B9_
FN:799,_RNCNvMsd_NtCsk43tzqYvrEx_11calypso_cli9telemetryNtB7_11EventStream5drain0B9_
FN:792,_RNCNvMsd_NtCsk43tzqYvrEx_11calypso_cli9telemetryNtB7_11EventStream8snapshot0B9_
FN:27,_RNvMNtCsk43tzqYvrEx_11calypso_cli9telemetryNtB2_8LogLevel8from_str
FN:218,_RNvMs6_NtCsk43tzqYvrEx_11calypso_cli9telemetryNtB5_18CorrelationContext3new
FN:364,_RNvMs8_NtCsk43tzqYvrEx_11calypso_cli9telemetryNtB5_6Logger10with_level
FN:350,_RNvMs8_NtCsk43tzqYvrEx_11calypso_cli9telemetryNtB5_6Logger11with_writer
FN:371,_RNvMs8_NtCsk43tzqYvrEx_11calypso_cli9telemetryNtB5_6Logger12with_context
FN:383,_RNvMs8_NtCsk43tzqYvrEx_11calypso_cli9telemetryNtB5_6Logger14with_min_level
FN:389,_RNvMs8_NtCsk43tzqYvrEx_11calypso_cli9telemetryNtB5_6Logger3log
FN:345,_RNvMs8_NtCsk43tzqYvrEx_11calypso_cli9telemetryNtB5_6Logger3new
FN:482,_RNvMs8_NtCsk43tzqYvrEx_11calypso_cli9telemetryNtB5_6Logger4info
FN:487,_RNvMs8_NtCsk43tzqYvrEx_11calypso_cli9telemetryNtB5_6Logger4warn
FN:477,_RNvMs8_NtCsk43tzqYvrEx_11calypso_cli9telemetryNtB5_6Logger5debug
FN:492,_RNvMs8_NtCsk43tzqYvrEx_11calypso_cli9telemetryNtB5_6Logger5error
FN:472,_RNvMs8_NtCsk43tzqYvrEx_11calypso_cli9telemetryNtB5_6Logger5trace
FN:522,_RNvMs8_NtCsk43tzqYvrEx_11calypso_cli9telemetryNtB5_6Logger9min_level
FN:571,_RNvMsa_NtCsk43tzqYvrEx_11calypso_cli9telemetryNtB5_15LogEntryBuilder10field_json
FN:583,_RNvMsa_NtCsk43tzqYvrEx_11calypso_cli9telemetryNtB5_15LogEntryBuilder5event
FN:684,_RNvMsc_NtCsk43tzqYvrEx_11calypso_cli9telemetryNtB5_5Event12gate_changed
FN:720,_RNvMsc_NtCsk43tzqYvrEx_11calypso_cli9telemetryNtB5_5Event13session_ended
FN:756,_RNvMsc_NtCsk43tzqYvrEx_11calypso_cli9telemetryNtB5_5Event15github_api_call
FN:704,_RNvMsc_NtCsk43tzqYvrEx_11calypso_cli9telemetryNtB5_5Event15session_started
FN:667,_RNvMsc_NtCsk43tzqYvrEx_11calypso_cli9telemetryNtB5_5Event16state_transition
FN:656,_RNvMsc_NtCsk43tzqYvrEx_11calypso_cli9telemetryNtB5_5Event3new
FN:740,_RNvMsc_NtCsk43tzqYvrEx_11calypso_cli9telemetryNtB5_5Event6git_op
FN:779,_RNvMsd_NtCsk43tzqYvrEx_11calypso_cli9telemetryNtB5_11EventStream3new
FN:784,_RNvMsd_NtCsk43tzqYvrEx_11calypso_cli9telemetryNtB5_11EventStream4push
FN:796,_RNvMsd_NtCsk43tzqYvrEx_11calypso_cli9telemetryNtB5_11EventStream5drain
FN:791,_RNvMsd_NtCsk43tzqYvrEx_11calypso_cli9telemetryNtB5_11EventStream8snapshot
FN:94,_RNvXs2_NtCsk43tzqYvrEx_11calypso_cli9telemetryNtB5_9ComponentNtNtCs3XFJfFEDSOQ_4core3fmt7Display3fmt
FN:138,_RNvXs5_NtCsk43tzqYvrEx_11calypso_cli9telemetryNtB5_8LogEventNtNtCs3XFJfFEDSOQ_4core3fmt7Display3fmt
FN:333,_RNvXs7_NtCsk43tzqYvrEx_11calypso_cli9telemetryNtB5_6LoggerNtNtCs3XFJfFEDSOQ_4core3fmt5Debug3fmt
FN:541,_RNvXs9_NtCsk43tzqYvrEx_11calypso_cli9telemetryNtB5_6LoggerNtNtCs3XFJfFEDSOQ_4core7default7Default7default
FN:634,_RNvXsb_NtCsk43tzqYvrEx_11calypso_cli9telemetryNtB5_9EventKindNtNtCs3XFJfFEDSOQ_4core3fmt7Display3fmt
FN:38,_RNvMNtCsk43tzqYvrEx_11calypso_cli9telemetryNtB2_8LogLevel6as_str
FN:73,_RNvMs0_NtCsk43tzqYvrEx_11calypso_cli9telemetryNtB5_9Component6as_str
FN:117,_RNvMs3_NtCsk43tzqYvrEx_11calypso_cli9telemetryNtB5_8LogEvent6as_str
FN:377,_RNvMs8_NtCsk43tzqYvrEx_11calypso_cli9telemetryNtB5_6Logger11with_format
FN:530,_RNvMs8_NtCsk43tzqYvrEx_11calypso_cli9telemetryNtB5_6Logger22__with_level_and_writer
FN:498,_RNvMs8_NtCsk43tzqYvrEx_11calypso_cli9telemetryNtB5_6Logger25log_level_override_notice
FN:511,_RNvMs8_NtCsk43tzqYvrEx_11calypso_cli9telemetryNtB5_6Logger5entry
FN:412,_RNvMs8_NtCsk43tzqYvrEx_11calypso_cli9telemetryNtB5_6Logger8log_full
FN:394,_RNvMs8_NtCsk43tzqYvrEx_11calypso_cli9telemetryNtB5_6Logger9log_event
FN:589,_RNvMsa_NtCsk43tzqYvrEx_11calypso_cli9telemetryNtB5_15LogEntryBuilder4emit
FN:577,_RNvMsa_NtCsk43tzqYvrEx_11calypso_cli9telemetryNtB5_15LogEntryBuilder9component
FN:283,_RNvNtCsk43tzqYvrEx_11calypso_cli9telemetry11days_to_ymd
FN:265,_RNvNtCsk43tzqYvrEx_11calypso_cli9telemetry11rfc3339_now
FN:242,_RNvNtCsk43tzqYvrEx_11calypso_cli9telemetry12str_is_empty
FN:183,_RNvNtCsk43tzqYvrEx_11calypso_cli9telemetry13is_secret_key
FN:193,_RNvNtCsk43tzqYvrEx_11calypso_cli9telemetry16redact_if_secret
FN:302,_RNvNtCsk43tzqYvrEx_11calypso_cli9telemetry17ansi_level_prefix
FN:161,_RNvNtCsk43tzqYvrEx_11calypso_cli9telemetry6is_tty
FN:50,_RNvXs_NtCsk43tzqYvrEx_11calypso_cli9telemetryNtB4_8LogLevelNtNtCs3XFJfFEDSOQ_4core3fmt7Display3fmt
FN:232,_RINvMs6_NtCsadPz79N6wDl_11calypso_cli9telemetryNtB6_18CorrelationContext14with_thread_idReECsirP46AEbElL_9telemetry
FN:222,_RINvMs6_NtCsadPz79N6wDl_11calypso_cli9telemetryNtB6_18CorrelationContext15with_feature_idReECsirP46AEbElL_9telemetry
FN:227,_RINvMs6_NtCsadPz79N6wDl_11calypso_cli9telemetryNtB6_18CorrelationContext15with_session_idReECsirP46AEbElL_9telemetry
FNDA:4,_RINvMsa_NtCsadPz79N6wDl_11calypso_cli9telemetryNtB6_15LogEntryBuilder5fieldNtNtCsgag4BwXrjBQ_5alloc6string6StringEB8_
FNDA:0,_RINvMsa_NtCsadPz79N6wDl_11calypso_cli9telemetryNtB6_15LogEntryBuilder5fieldRNtNtCsgag4BwXrjBQ_5alloc6string6StringEB8_
FNDA:9,_RINvMsa_NtCsadPz79N6wDl_11calypso_cli9telemetryNtB6_15LogEntryBuilder5fieldReEB8_
FNDA:2,_RNCNvMs8_NtCsadPz79N6wDl_11calypso_cli9telemetryNtB7_6Logger11with_writer0B9_
FNDA:0,_RNCNvMsa_NtCsadPz79N6wDl_11calypso_cli9telemetryNtB7_15LogEntryBuilder4emit0B9_
FNDA:0,_RNCNvMsa_NtCsadPz79N6wDl_11calypso_cli9telemetryNtB7_15LogEntryBuilder4emits_0B9_
FNDA:3,_RNCNvMsd_NtCsadPz79N6wDl_11calypso_cli9telemetryNtB7_11EventStream5drain0B9_
FNDA:3,_RNCNvMsd_NtCsadPz79N6wDl_11calypso_cli9telemetryNtB7_11EventStream8snapshot0B9_
FNDA:17,_RNvMNtCsadPz79N6wDl_11calypso_cli9telemetryNtB2_8LogLevel6as_str
FNDA:2,_RNvMNtCsadPz79N6wDl_11calypso_cli9telemetryNtB2_8LogLevel8from_str
FNDA:0,_RNvMs0_NtCsadPz79N6wDl_11calypso_cli9telemetryNtB5_9Component6as_str
FNDA:0,_RNvMs3_NtCsadPz79N6wDl_11calypso_cli9telemetryNtB5_8LogEvent6as_str
FNDA:2,_RNvMs6_NtCsadPz79N6wDl_11calypso_cli9telemetryNtB5_18CorrelationContext3new
FNDA:1,_RNvMs8_NtCsadPz79N6wDl_11calypso_cli9telemetryNtB5_6Logger10with_level
FNDA:0,_RNvMs8_NtCsadPz79N6wDl_11calypso_cli9telemetryNtB5_6Logger11with_format
FNDA:4,_RNvMs8_NtCsadPz79N6wDl_11calypso_cli9telemetryNtB5_6Logger11with_writer
FNDA:2,_RNvMs8_NtCsadPz79N6wDl_11calypso_cli9telemetryNtB5_6Logger12with_context
FNDA:0,_RNvMs8_NtCsadPz79N6wDl_11calypso_cli9telemetryNtB5_6Logger14with_min_level
FNDA:16,_RNvMs8_NtCsadPz79N6wDl_11calypso_cli9telemetryNtB5_6Logger22__with_level_and_writer
FNDA:0,_RNvMs8_NtCsadPz79N6wDl_11calypso_cli9telemetryNtB5_6Logger25log_level_override_notice
FNDA:14,_RNvMs8_NtCsadPz79N6wDl_11calypso_cli9telemetryNtB5_6Logger3log
FNDA:1,_RNvMs8_NtCsadPz79N6wDl_11calypso_cli9telemetryNtB5_6Logger3new
FNDA:8,_RNvMs8_NtCsadPz79N6wDl_11calypso_cli9telemetryNtB5_6Logger4info
FNDA:2,_RNvMs8_NtCsadPz79N6wDl_11calypso_cli9telemetryNtB5_6Logger4warn
FNDA:3,_RNvMs8_NtCsadPz79N6wDl_11calypso_cli9telemetryNtB5_6Logger5debug
FNDA:8,_RNvMs8_NtCsadPz79N6wDl_11calypso_cli9telemetryNtB5_6Logger5entry
FNDA:1,_RNvMs8_NtCsadPz79N6wDl_11calypso_cli9telemetryNtB5_6Logger5error
FNDA:0,_RNvMs8_NtCsadPz79N6wDl_11calypso_cli9telemetryNtB5_6Logger5trace
FNDA:22,_RNvMs8_NtCsadPz79N6wDl_11calypso_cli9telemetryNtB5_6Logger8log_full
FNDA:0,_RNvMs8_NtCsadPz79N6wDl_11calypso_cli9telemetryNtB5_6Logger9log_event
FNDA:4,_RNvMs8_NtCsadPz79N6wDl_11calypso_cli9telemetryNtB5_6Logger9min_level
FNDA:2,_RNvMsa_NtCsadPz79N6wDl_11calypso_cli9telemetryNtB5_15LogEntryBuilder10field_json
FNDA:8,_RNvMsa_NtCsadPz79N6wDl_11calypso_cli9telemetryNtB5_15LogEntryBuilder4emit
FNDA:0,_RNvMsa_NtCsadPz79N6wDl_11calypso_cli9telemetryNtB5_15LogEntryBuilder5event
FNDA:0,_RNvMsa_NtCsadPz79N6wDl_11calypso_cli9telemetryNtB5_15LogEntryBuilder9component
FNDA:3,_RNvMsc_NtCsadPz79N6wDl_11calypso_cli9telemetryNtB5_5Event12gate_changed
FNDA:2,_RNvMsc_NtCsadPz79N6wDl_11calypso_cli9telemetryNtB5_5Event13session_ended
FNDA:2,_RNvMsc_NtCsadPz79N6wDl_11calypso_cli9telemetryNtB5_5Event15github_api_call
FNDA:3,_RNvMsc_NtCsadPz79N6wDl_11calypso_cli9telemetryNtB5_5Event15session_started
FNDA:3,_RNvMsc_NtCsadPz79N6wDl_11calypso_cli9telemetryNtB5_5Event16state_transition
FNDA:17,_RNvMsc_NtCsadPz79N6wDl_11calypso_cli9telemetryNtB5_5Event3new
FNDA:4,_RNvMsc_NtCsadPz79N6wDl_11calypso_cli9telemetryNtB5_5Event6git_op
FNDA:3,_RNvMsd_NtCsadPz79N6wDl_11calypso_cli9telemetryNtB5_11EventStream3new
FNDA:5,_RNvMsd_NtCsadPz79N6wDl_11calypso_cli9telemetryNtB5_11EventStream4push
FNDA:3,_RNvMsd_NtCsadPz79N6wDl_11calypso_cli9telemetryNtB5_11EventStream5drain
FNDA:3,_RNvMsd_NtCsadPz79N6wDl_11calypso_cli9telemetryNtB5_11EventStream8snapshot
FNDA:34,_RNvNtCsadPz79N6wDl_11calypso_cli9telemetry11days_to_ymd
FNDA:34,_RNvNtCsadPz79N6wDl_11calypso_cli9telemetry11rfc3339_now
FNDA:34,_RNvNtCsadPz79N6wDl_11calypso_cli9telemetry12str_is_empty
FNDA:13,_RNvNtCsadPz79N6wDl_11calypso_cli9telemetry13is_secret_key
FNDA:13,_RNvNtCsadPz79N6wDl_11calypso_cli9telemetry16redact_if_secret
FNDA:0,_RNvNtCsadPz79N6wDl_11calypso_cli9telemetry17ansi_level_prefix
FNDA:0,_RNvNtCsadPz79N6wDl_11calypso_cli9telemetry6is_tty
FNDA:0,_RNvXs2_NtCsadPz79N6wDl_11calypso_cli9telemetryNtB5_9ComponentNtNtCs3XFJfFEDSOQ_4core3fmt7Display3fmt
FNDA:0,_RNvXs5_NtCsadPz79N6wDl_11calypso_cli9telemetryNtB5_8LogEventNtNtCs3XFJfFEDSOQ_4core3fmt7Display3fmt
FNDA:0,_RNvXs7_NtCsadPz79N6wDl_11calypso_cli9telemetryNtB5_6LoggerNtNtCs3XFJfFEDSOQ_4core3fmt5Debug3fmt
FNDA:0,_RNvXs9_NtCsadPz79N6wDl_11calypso_cli9telemetryNtB5_6LoggerNtNtCs3XFJfFEDSOQ_4core7default7Default7default
FNDA:0,_RNvXs_NtCsadPz79N6wDl_11calypso_cli9telemetryNtB4_8LogLevelNtNtCs3XFJfFEDSOQ_4core3fmt7Display3fmt
FNDA:0,_RNvXsb_NtCsadPz79N6wDl_11calypso_cli9telemetryNtB5_9EventKindNtNtCs3XFJfFEDSOQ_4core3fmt7Display3fmt
FNDA:1,_RINvMsa_NtCsk43tzqYvrEx_11calypso_cli9telemetryNtB6_15LogEntryBuilder5fieldNtNtCsgag4BwXrjBQ_5alloc6string6StringEB8_
FNDA:0,_RINvMsa_NtCsk43tzqYvrEx_11calypso_cli9telemetryNtB6_15LogEntryBuilder5fieldRNtNtCsgag4BwXrjBQ_5alloc6string6StringEB8_
FNDA:0,_RINvMsa_NtCsk43tzqYvrEx_11calypso_cli9telemetryNtB6_15LogEntryBuilder5fieldReEB8_
FNDA:1,_RNCNvMsa_NtCsk43tzqYvrEx_11calypso_cli9telemetryNtB7_15LogEntryBuilder4emit0B9_
FNDA:0,_RNCNvMsa_NtCsk43tzqYvrEx_11calypso_cli9telemetryNtB7_15LogEntryBuilder4emits_0B9_
FNDA:0,_RINvMs6_NtCsk43tzqYvrEx_11calypso_cli9telemetryNtB6_18CorrelationContext14with_thread_idpEB8_
FNDA:0,_RINvMs6_NtCsk43tzqYvrEx_11calypso_cli9telemetryNtB6_18CorrelationContext15with_feature_idpEB8_
FNDA:0,_RINvMs6_NtCsk43tzqYvrEx_11calypso_cli9telemetryNtB6_18CorrelationContext15with_session_idpEB8_
FNDA:0,_RINvXs1_NtCsk43tzqYvrEx_11calypso_cli9telemetryNtB6_9ComponentNtNtCs4MI0uZnVNTb_10serde_core3ser9Serialize9serializepEB8_
FNDA:0,_RINvXs4_NtCsk43tzqYvrEx_11calypso_cli9telemetryNtB6_8LogEventNtNtCs4MI0uZnVNTb_10serde_core3ser9Serialize9serializepEB8_
FNDA:0,_RNCNvMs8_NtCsk43tzqYvrEx_11calypso_cli9telemetryNtB7_6Logger11with_writer0B9_
FNDA:0,_RNCNvMsd_NtCsk43tzqYvrEx_11calypso_cli9telemetryNtB7_11EventStream5drain0B9_
FNDA:0,_RNCNvMsd_NtCsk43tzqYvrEx_11calypso_cli9telemetryNtB7_11EventStream8snapshot0B9_
FNDA:0,_RNvMNtCsk43tzqYvrEx_11calypso_cli9telemetryNtB2_8LogLevel8from_str
FNDA:0,_RNvMs6_NtCsk43tzqYvrEx_11calypso_cli9telemetryNtB5_18CorrelationContext3new
FNDA:0,_RNvMs8_NtCsk43tzqYvrEx_11calypso_cli9telemetryNtB5_6Logger10with_level
FNDA:0,_RNvMs8_NtCsk43tzqYvrEx_11calypso_cli9telemetryNtB5_6Logger11with_writer
FNDA:0,_RNvMs8_NtCsk43tzqYvrEx_11calypso_cli9telemetryNtB5_6Logger12with_context
FNDA:0,_RNvMs8_NtCsk43tzqYvrEx_11calypso_cli9telemetryNtB5_6Logger14with_min_level
FNDA:0,_RNvMs8_NtCsk43tzqYvrEx_11calypso_cli9telemetryNtB5_6Logger3log
FNDA:0,_RNvMs8_NtCsk43tzqYvrEx_11calypso_cli9telemetryNtB5_6Logger3new
FNDA:0,_RNvMs8_NtCsk43tzqYvrEx_11calypso_cli9telemetryNtB5_6Logger4info
FNDA:0,_RNvMs8_NtCsk43tzqYvrEx_11calypso_cli9telemetryNtB5_6Logger4warn
FNDA:0,_RNvMs8_NtCsk43tzqYvrEx_11calypso_cli9telemetryNtB5_6Logger5debug
FNDA:0,_RNvMs8_NtCsk43tzqYvrEx_11calypso_cli9telemetryNtB5_6Logger5error
FNDA:0,_RNvMs8_NtCsk43tzqYvrEx_11calypso_cli9telemetryNtB5_6Logger5trace
FNDA:0,_RNvMs8_NtCsk43tzqYvrEx_11calypso_cli9telemetryNtB5_6Logger9min_level
FNDA:0,_RNvMsa_NtCsk43tzqYvrEx_11calypso_cli9telemetryNtB5_15LogEntryBuilder10field_json
FNDA:0,_RNvMsa_NtCsk43tzqYvrEx_11calypso_cli9telemetryNtB5_15LogEntryBuilder5event
FNDA:0,_RNvMsc_NtCsk43tzqYvrEx_11calypso_cli9telemetryNtB5_5Event12gate_changed
FNDA:0,_RNvMsc_NtCsk43tzqYvrEx_11calypso_cli9telemetryNtB5_5Event13session_ended
FNDA:0,_RNvMsc_NtCsk43tzqYvrEx_11calypso_cli9telemetryNtB5_5Event15github_api_call
FNDA:0,_RNvMsc_NtCsk43tzqYvrEx_11calypso_cli9telemetryNtB5_5Event15session_started
FNDA:0,_RNvMsc_NtCsk43tzqYvrEx_11calypso_cli9telemetryNtB5_5Event16state_transition
FNDA:0,_RNvMsc_NtCsk43tzqYvrEx_11calypso_cli9telemetryNtB5_5Event3new
FNDA:0,_RNvMsc_NtCsk43tzqYvrEx_11calypso_cli9telemetryNtB5_5Event6git_op
FNDA:0,_RNvMsd_NtCsk43tzqYvrEx_11calypso_cli9telemetryNtB5_11EventStream3new
FNDA:0,_RNvMsd_NtCsk43tzqYvrEx_11calypso_cli9telemetryNtB5_11EventStream4push
FNDA:0,_RNvMsd_NtCsk43tzqYvrEx_11calypso_cli9telemetryNtB5_11EventStream5drain
FNDA:0,_RNvMsd_NtCsk43tzqYvrEx_11calypso_cli9telemetryNtB5_11EventStream8snapshot
FNDA:0,_RNvXs2_NtCsk43tzqYvrEx_11calypso_cli9telemetryNtB5_9ComponentNtNtCs3XFJfFEDSOQ_4core3fmt7Display3fmt
FNDA:0,_RNvXs5_NtCsk43tzqYvrEx_11calypso_cli9telemetryNtB5_8LogEventNtNtCs3XFJfFEDSOQ_4core3fmt7Display3fmt
FNDA:0,_RNvXs7_NtCsk43tzqYvrEx_11calypso_cli9telemetryNtB5_6LoggerNtNtCs3XFJfFEDSOQ_4core3fmt5Debug3fmt
FNDA:0,_RNvXs9_NtCsk43tzqYvrEx_11calypso_cli9telemetryNtB5_6LoggerNtNtCs3XFJfFEDSOQ_4core7default7Default7default
FNDA:0,_RNvXsb_NtCsk43tzqYvrEx_11calypso_cli9telemetryNtB5_9EventKindNtNtCs3XFJfFEDSOQ_4core3fmt7Display3fmt
FNDA:33,_RNvMNtCsk43tzqYvrEx_11calypso_cli9telemetryNtB2_8LogLevel6as_str
FNDA:32,_RNvMs0_NtCsk43tzqYvrEx_11calypso_cli9telemetryNtB5_9Component6as_str
FNDA:31,_RNvMs3_NtCsk43tzqYvrEx_11calypso_cli9telemetryNtB5_8LogEvent6as_str
FNDA:11,_RNvMs8_NtCsk43tzqYvrEx_11calypso_cli9telemetryNtB5_6Logger11with_format
FNDA:11,_RNvMs8_NtCsk43tzqYvrEx_11calypso_cli9telemetryNtB5_6Logger22__with_level_and_writer
FNDA:1,_RNvMs8_NtCsk43tzqYvrEx_11calypso_cli9telemetryNtB5_6Logger25log_level_override_notice
FNDA:1,_RNvMs8_NtCsk43tzqYvrEx_11calypso_cli9telemetryNtB5_6Logger5entry
FNDA:32,_RNvMs8_NtCsk43tzqYvrEx_11calypso_cli9telemetryNtB5_6Logger8log_full
FNDA:31,_RNvMs8_NtCsk43tzqYvrEx_11calypso_cli9telemetryNtB5_6Logger9log_event
FNDA:1,_RNvMsa_NtCsk43tzqYvrEx_11calypso_cli9telemetryNtB5_15LogEntryBuilder4emit
FNDA:1,_RNvMsa_NtCsk43tzqYvrEx_11calypso_cli9telemetryNtB5_15LogEntryBuilder9component
FNDA:32,_RNvNtCsk43tzqYvrEx_11calypso_cli9telemetry11days_to_ymd
FNDA:32,_RNvNtCsk43tzqYvrEx_11calypso_cli9telemetry11rfc3339_now
FNDA:64,_RNvNtCsk43tzqYvrEx_11calypso_cli9telemetry12str_is_empty
FNDA:1,_RNvNtCsk43tzqYvrEx_11calypso_cli9telemetry13is_secret_key
FNDA:1,_RNvNtCsk43tzqYvrEx_11calypso_cli9telemetry16redact_if_secret
FNDA:0,_RNvNtCsk43tzqYvrEx_11calypso_cli9telemetry17ansi_level_prefix
FNDA:0,_RNvNtCsk43tzqYvrEx_11calypso_cli9telemetry6is_tty
FNDA:1,_RNvXs_NtCsk43tzqYvrEx_11calypso_cli9telemetryNtB4_8LogLevelNtNtCs3XFJfFEDSOQ_4core3fmt7Display3fmt
FNDA:1,_RINvMs6_NtCsadPz79N6wDl_11calypso_cli9telemetryNtB6_18CorrelationContext14with_thread_idReECsirP46AEbElL_9telemetry
FNDA:2,_RINvMs6_NtCsadPz79N6wDl_11calypso_cli9telemetryNtB6_18CorrelationContext15with_feature_idReECsirP46AEbElL_9telemetry
FNDA:1,_RINvMs6_NtCsadPz79N6wDl_11calypso_cli9telemetryNtB6_18CorrelationContext15with_session_idReECsirP46AEbElL_9telemetry
FNF:62
FNH:49
DA:27,2
DA:28,2
DA:29,2
DA:30,2
DA:31,1
DA:32,1
DA:33,1
DA:34,1
DA:36,2
DA:38,50
DA:39,50
DA:40,0
DA:41,13
DA:42,32
DA:43,1
DA:44,4
DA:46,50
DA:50,1
DA:51,1
DA:52,1
DA:73,32
DA:74,32
DA:75,4
DA:76,0
DA:77,23
DA:78,0
DA:79,0
DA:80,0
DA:81,0
DA:82,5
DA:84,32
DA:88,0
DA:89,0
DA:90,0
DA:94,0
DA:95,0
DA:96,0
DA:117,31
DA:118,31
DA:119,0
DA:120,22
DA:121,0
DA:122,0
DA:123,4
DA:124,2
DA:125,3
DA:126,0
DA:128,31
DA:132,0
DA:133,0
DA:134,0
DA:138,0
DA:139,0
DA:140,0
DA:161,0
DA:168,0
DA:174,0
DA:183,14
DA:184,14
DA:185,14
DA:186,13
DA:187,12
DA:188,11
DA:189,10
DA:190,9
DA:191,14
DA:193,14
DA:194,14
DA:195,6
DA:197,8
DA:199,14
DA:218,2
DA:219,2
DA:220,2
DA:222,2
DA:223,2
DA:224,2
DA:225,2
DA:227,1
DA:228,1
DA:229,1
DA:230,1
DA:232,1
DA:233,1
DA:234,1
DA:235,1
DA:242,98
DA:243,98
DA:244,98
DA:265,66
DA:267,66
DA:268,66
DA:269,66
DA:270,66
DA:271,66
DA:272,66
DA:273,66
DA:274,66
DA:277,66
DA:279,66
DA:280,66
DA:283,66
DA:285,66
DA:286,66
DA:287,66
DA:288,66
DA:289,66
DA:290,66
DA:291,66
DA:292,66
DA:293,66
DA:294,66
DA:295,66
DA:296,66
DA:302,0
DA:303,0
DA:304,0
DA:305,0
DA:306,0
DA:307,0
DA:308,0
DA:309,0
DA:310,0
DA:311,0
DA:313,0
DA:333,0
DA:334,0
DA:335,0
DA:336,0
DA:337,0
DA:338,0
DA:339,0
DA:345,1
DA:346,1
DA:347,1
DA:350,4
DA:351,4
DA:352,4
DA:353,4
DA:354,4
DA:355,4
DA:356,4
DA:357,4
DA:358,4
DA:359,4
DA:360,4
DA:361,4
DA:364,1
DA:365,1
DA:366,1
DA:367,1
DA:368,1
DA:371,2
DA:372,2
DA:373,2
DA:374,2
DA:377,11
DA:378,11
DA:379,11
DA:380,11
DA:383,0
DA:384,0
DA:385,0
DA:386,0
DA:389,14
DA:390,14
DA:391,14
DA:394,31
DA:395,31
DA:396,31
DA:397,31
DA:398,31
DA:399,31
DA:400,31
DA:401,31
DA:402,31
DA:403,31
DA:404,31
DA:405,31
DA:406,31
DA:407,31
DA:409,31
DA:412,54
DA:413,54
DA:414,54
DA:415,54
DA:416,54
DA:417,54
DA:418,54
DA:419,54
DA:420,54
DA:421,5
DA:422,49
DA:424,49
DA:426,49
DA:428,49
DA:429,49
DA:430,49
DA:431,49
DA:432,49
DA:433,49
DA:434,49
DA:435,49
DA:436,49
DA:437,49
DA:438,49
DA:440,49
DA:441,49
DA:442,49
DA:443,49
DA:444,49
DA:445,0
DA:448,0
DA:449,0
DA:450,0
DA:452,0
DA:454,0
DA:455,0
DA:464,0
DA:465,0
DA:466,0
DA:469,54
DA:472,0
DA:473,0
DA:474,0
DA:477,3
DA:478,3
DA:479,3
DA:482,8
DA:483,8
DA:484,8
DA:487,2
DA:488,2
DA:489,2
DA:492,1
DA:493,1
DA:494,1
DA:498,1
DA:499,1
DA:500,1
DA:501,1
DA:502,1
DA:503,1
DA:504,1
DA:505,1
DA:507,1
DA:511,9
DA:512,9
DA:513,9
DA:514,9
DA:515,9
DA:516,9
DA:517,9
DA:518,9
DA:519,9
DA:520,9
DA:522,4
DA:523,4
DA:524,4
DA:530,27
DA:531,27
DA:532,27
DA:533,27
DA:534,27
DA:535,27
DA:536,27
DA:537,27
DA:541,0
DA:542,0
DA:543,0
DA:563,14
DA:564,14
DA:565,14
DA:566,14
DA:567,14
DA:568,14
DA:571,2
DA:572,2
DA:573,2
DA:574,2
DA:577,1
DA:578,1
DA:579,1
DA:580,1
DA:583,0
DA:584,0
DA:585,0
DA:586,0
DA:589,9
DA:590,9
DA:591,9
DA:592,9
DA:593,9
DA:594,9
DA:634,0
DA:635,0
DA:636,0
DA:637,0
DA:638,0
DA:639,0
DA:640,0
DA:641,0
DA:643,0
DA:644,0
DA:656,17
DA:657,17
DA:658,17
DA:659,17
DA:660,17
DA:661,17
DA:662,17
DA:667,3
DA:668,3
DA:669,3
DA:670,3
DA:671,3
DA:673,3
DA:674,3
DA:675,1
DA:676,1
DA:677,1
DA:678,1
DA:679,2
DA:680,3
DA:681,3
DA:684,3
DA:685,3
DA:686,3
DA:687,3
DA:688,3
DA:690,3
DA:691,3
DA:692,3
DA:694,3
DA:695,1
DA:696,1
DA:697,1
DA:698,1
DA:699,2
DA:700,3
DA:701,3
DA:704,3
DA:705,3
DA:706,3
DA:707,3
DA:708,3
DA:710,3
DA:711,1
DA:712,1
DA:713,1
DA:714,1
DA:715,2
DA:716,3
DA:717,3
DA:720,2
DA:721,2
DA:722,2
DA:723,2
DA:724,2
DA:726,2
DA:727,2
DA:728,2
DA:730,2
DA:731,1
DA:732,1
DA:733,1
DA:734,1
DA:735,1
DA:736,2
DA:737,2
DA:740,4
DA:741,4
DA:742,4
DA:743,4
DA:744,4
DA:746,4
DA:747,2
DA:748,2
DA:749,2
DA:750,2
DA:751,2
DA:752,4
DA:753,4
DA:756,2
DA:757,2
DA:758,2
DA:759,2
DA:760,2
DA:762,2
DA:763,1
DA:764,1
DA:765,1
DA:766,1
DA:767,1
DA:768,2
DA:769,2
DA:779,3
DA:780,3
DA:781,3
DA:784,5
DA:785,5
DA:786,5
DA:787,5
DA:788,5
DA:791,3
DA:792,3
DA:793,3
DA:796,3
DA:797,3
DA:798,3
DA:799,3
DA:800,3
DA:801,3
BRF:0
BRH:0
LF:418
LH:340
end_of_record
SF:/home/lucas/calypso/.claude/worktrees/agent-a62ed768/cli/src/template.rs
FN:311,_RNvMNtCsadPz79N6wDl_11calypso_cli8templateNtB2_11TemplateSet12task_by_name
FN:26,_RNvMNtCsadPz79N6wDl_11calypso_cli8templateNtB2_11TemplateSet17from_yaml_strings
FN:326,_RNvMNtCsadPz79N6wDl_11calypso_cli8templateNtB2_11TemplateSet18function_for_state
FN:219,_RNvMNtCsadPz79N6wDl_11calypso_cli8templateNtB2_11TemplateSet18validate_coherence
FN:46,_RNvMNtCsadPz79N6wDl_11calypso_cli8templateNtB2_11TemplateSet19load_from_directory
FN:316,_RNvMNtCsadPz79N6wDl_11calypso_cli8templateNtB2_11TemplateSet19step_type_for_state
FN:75,_RNvMNtCsadPz79N6wDl_11calypso_cli8templateNtB2_11TemplateSet8validate
FN:417,_RNvMs_NtCsadPz79N6wDl_11calypso_cli8templateNtB4_15StateDefinition4name
FN:424,_RNvMs_NtCsadPz79N6wDl_11calypso_cli8templateNtB4_15StateDefinition9step_type
FN:340,_RNvNtCsadPz79N6wDl_11calypso_cli8template18merge_yaml_strings
FN:619,_RNvNtCsadPz79N6wDl_11calypso_cli8template20validate_policy_gate
FN:357,_RNvNtCsadPz79N6wDl_11calypso_cli8template26load_embedded_template_set
FN:365,_RNvNtCsadPz79N6wDl_11calypso_cli8template29resolve_template_set_for_path
FN:608,_RNvXs0_NtCsadPz79N6wDl_11calypso_cli8templateNtB5_13TemplateErrorNtNtCs3XFJfFEDSOQ_4core3fmt7Display3fmt
FN:312,_RNCNvMNtCsadPz79N6wDl_11calypso_cli8templateNtB4_11TemplateSet12task_by_name0B6_
FN:330,_RNCNvMNtCsadPz79N6wDl_11calypso_cli8templateNtB4_11TemplateSet18function_for_state0B6_
FN:331,_RNCNvMNtCsadPz79N6wDl_11calypso_cli8templateNtB4_11TemplateSet18function_for_states_0B6_
FN:226,_RNCNvMNtCsadPz79N6wDl_11calypso_cli8templateNtB4_11TemplateSet18validate_coherence0B6_
FN:282,_RNCNvMNtCsadPz79N6wDl_11calypso_cli8templateNtB4_11TemplateSet18validate_coherences0_0B6_
FN:230,_RNCNvMNtCsadPz79N6wDl_11calypso_cli8templateNtB4_11TemplateSet18validate_coherences_0B6_
FN:320,_RNCNvMNtCsadPz79N6wDl_11calypso_cli8templateNtB4_11TemplateSet19step_type_for_state0B6_
FN:321,_RNCNvMNtCsadPz79N6wDl_11calypso_cli8templateNtB4_11TemplateSet19step_type_for_states_0B6_
FN:86,_RNCNvMNtCsadPz79N6wDl_11calypso_cli8templateNtB4_11TemplateSet8validate0B6_
FN:116,_RNCNvMNtCsadPz79N6wDl_11calypso_cli8templateNtB4_11TemplateSet8validates0_0B6_
FN:133,_RNCNvMNtCsadPz79N6wDl_11calypso_cli8templateNtB4_11TemplateSet8validates1_0B6_
FN:156,_RNCNvMNtCsadPz79N6wDl_11calypso_cli8templateNtB4_11TemplateSet8validates2_0B6_
FN:157,_RNCNvMNtCsadPz79N6wDl_11calypso_cli8templateNtB4_11TemplateSet8validates3_0B6_
FN:163,_RNCNvMNtCsadPz79N6wDl_11calypso_cli8templateNtB4_11TemplateSet8validates4_0B6_
FN:200,_RNCNvMNtCsadPz79N6wDl_11calypso_cli8templateNtB4_11TemplateSet8validates5_0B6_
FN:104,_RNCNvMNtCsadPz79N6wDl_11calypso_cli8templateNtB4_11TemplateSet8validates_0B6_
FN:375,_RNCNvNtCsadPz79N6wDl_11calypso_cli8template29resolve_template_set_for_path0B5_
FN:388,_RNCNvNtCsadPz79N6wDl_11calypso_cli8template29resolve_template_set_for_paths_0B5_
FN:226,_RNCNvMNtCsk43tzqYvrEx_11calypso_cli8templateNtB4_11TemplateSet18validate_coherence0B6_
FN:282,_RNCNvMNtCsk43tzqYvrEx_11calypso_cli8templateNtB4_11TemplateSet18validate_coherences0_0B6_
FN:230,_RNCNvMNtCsk43tzqYvrEx_11calypso_cli8templateNtB4_11TemplateSet18validate_coherences_0B6_
FN:375,_RNCNvNtCsk43tzqYvrEx_11calypso_cli8template29resolve_template_set_for_path0B5_
FN:388,_RNCNvNtCsk43tzqYvrEx_11calypso_cli8template29resolve_template_set_for_paths_0B5_
FN:219,_RNvMNtCsk43tzqYvrEx_11calypso_cli8templateNtB2_11TemplateSet18validate_coherence
FN:46,_RNvMNtCsk43tzqYvrEx_11calypso_cli8templateNtB2_11TemplateSet19load_from_directory
FN:340,_RNvNtCsk43tzqYvrEx_11calypso_cli8template18merge_yaml_strings
FN:365,_RNvNtCsk43tzqYvrEx_11calypso_cli8template29resolve_template_set_for_path
FN:311,_RNvMNtCsk43tzqYvrEx_11calypso_cli8templateNtB2_11TemplateSet12task_by_name
FN:26,_RNvMNtCsk43tzqYvrEx_11calypso_cli8templateNtB2_11TemplateSet17from_yaml_strings
FN:326,_RNvMNtCsk43tzqYvrEx_11calypso_cli8templateNtB2_11TemplateSet18function_for_state
FN:316,_RNvMNtCsk43tzqYvrEx_11calypso_cli8templateNtB2_11TemplateSet19step_type_for_state
FN:75,_RNvMNtCsk43tzqYvrEx_11calypso_cli8templateNtB2_11TemplateSet8validate
FN:417,_RNvMs_NtCsk43tzqYvrEx_11calypso_cli8templateNtB4_15StateDefinition4name
FN:424,_RNvMs_NtCsk43tzqYvrEx_11calypso_cli8templateNtB4_15StateDefinition9step_type
FN:619,_RNvNtCsk43tzqYvrEx_11calypso_cli8template20validate_policy_gate
FN:357,_RNvNtCsk43tzqYvrEx_11calypso_cli8template26load_embedded_template_set
FN:608,_RNvXs0_NtCsk43tzqYvrEx_11calypso_cli8templateNtB5_13TemplateErrorNtNtCs3XFJfFEDSOQ_4core3fmt7Display3fmt
FN:312,_RNCNvMNtCsk43tzqYvrEx_11calypso_cli8templateNtB4_11TemplateSet12task_by_name0B6_
FN:330,_RNCNvMNtCsk43tzqYvrEx_11calypso_cli8templateNtB4_11TemplateSet18function_for_state0B6_
FN:331,_RNCNvMNtCsk43tzqYvrEx_11calypso_cli8templateNtB4_11TemplateSet18function_for_states_0B6_
FN:320,_RNCNvMNtCsk43tzqYvrEx_11calypso_cli8templateNtB4_11TemplateSet19step_type_for_state0B6_
FN:321,_RNCNvMNtCsk43tzqYvrEx_11calypso_cli8templateNtB4_11TemplateSet19step_type_for_states_0B6_
FN:86,_RNCNvMNtCsk43tzqYvrEx_11calypso_cli8templateNtB4_11TemplateSet8validate0B6_
FN:116,_RNCNvMNtCsk43tzqYvrEx_11calypso_cli8templateNtB4_11TemplateSet8validates0_0B6_
FN:133,_RNCNvMNtCsk43tzqYvrEx_11calypso_cli8templateNtB4_11TemplateSet8validates1_0B6_
FN:156,_RNCNvMNtCsk43tzqYvrEx_11calypso_cli8templateNtB4_11TemplateSet8validates2_0B6_
FN:157,_RNCNvMNtCsk43tzqYvrEx_11calypso_cli8templateNtB4_11TemplateSet8validates3_0B6_
FN:163,_RNCNvMNtCsk43tzqYvrEx_11calypso_cli8templateNtB4_11TemplateSet8validates4_0B6_
FN:200,_RNCNvMNtCsk43tzqYvrEx_11calypso_cli8templateNtB4_11TemplateSet8validates5_0B6_
FN:104,_RNCNvMNtCsk43tzqYvrEx_11calypso_cli8templateNtB4_11TemplateSet8validates_0B6_
FNDA:207,_RNvMNtCsadPz79N6wDl_11calypso_cli8templateNtB2_11TemplateSet12task_by_name
FNDA:127,_RNvMNtCsadPz79N6wDl_11calypso_cli8templateNtB2_11TemplateSet17from_yaml_strings
FNDA:3,_RNvMNtCsadPz79N6wDl_11calypso_cli8templateNtB2_11TemplateSet18function_for_state
FNDA:9,_RNvMNtCsadPz79N6wDl_11calypso_cli8templateNtB2_11TemplateSet18validate_coherence
FNDA:23,_RNvMNtCsadPz79N6wDl_11calypso_cli8templateNtB2_11TemplateSet19load_from_directory
FNDA:21,_RNvMNtCsadPz79N6wDl_11calypso_cli8templateNtB2_11TemplateSet19step_type_for_state
FNDA:126,_RNvMNtCsadPz79N6wDl_11calypso_cli8templateNtB2_11TemplateSet8validate
FNDA:375,_RNvMs_NtCsadPz79N6wDl_11calypso_cli8templateNtB4_15StateDefinition4name
FNDA:25,_RNvMs_NtCsadPz79N6wDl_11calypso_cli8templateNtB4_15StateDefinition9step_type
FNDA:47,_RNvNtCsadPz79N6wDl_11calypso_cli8template18merge_yaml_strings
FNDA:337,_RNvNtCsadPz79N6wDl_11calypso_cli8template20validate_policy_gate
FNDA:60,_RNvNtCsadPz79N6wDl_11calypso_cli8template26load_embedded_template_set
FNDA:18,_RNvNtCsadPz79N6wDl_11calypso_cli8template29resolve_template_set_for_path
FNDA:25,_RNvXs0_NtCsadPz79N6wDl_11calypso_cli8templateNtB5_13TemplateErrorNtNtCs3XFJfFEDSOQ_4core3fmt7Display3fmt
FNDA:2634,_RNCNvMNtCsadPz79N6wDl_11calypso_cli8templateNtB4_11TemplateSet12task_by_name0B6_
FNDA:18,_RNCNvMNtCsadPz79N6wDl_11calypso_cli8templateNtB4_11TemplateSet18function_for_state0B6_
FNDA:2,_RNCNvMNtCsadPz79N6wDl_11calypso_cli8templateNtB4_11TemplateSet18function_for_states_0B6_
FNDA:60,_RNCNvMNtCsadPz79N6wDl_11calypso_cli8templateNtB4_11TemplateSet18validate_coherence0B6_
FNDA:115,_RNCNvMNtCsadPz79N6wDl_11calypso_cli8templateNtB4_11TemplateSet18validate_coherences0_0B6_
FNDA:39,_RNCNvMNtCsadPz79N6wDl_11calypso_cli8templateNtB4_11TemplateSet18validate_coherences_0B6_
FNDA:90,_RNCNvMNtCsadPz79N6wDl_11calypso_cli8templateNtB4_11TemplateSet19step_type_for_state0B6_
FNDA:20,_RNCNvMNtCsadPz79N6wDl_11calypso_cli8templateNtB4_11TemplateSet19step_type_for_states_0B6_
FNDA:132,_RNCNvMNtCsadPz79N6wDl_11calypso_cli8templateNtB4_11TemplateSet8validate0B6_
FNDA:2,_RNCNvMNtCsadPz79N6wDl_11calypso_cli8templateNtB4_11TemplateSet8validates0_0B6_
FNDA:1,_RNCNvMNtCsadPz79N6wDl_11calypso_cli8templateNtB4_11TemplateSet8validates1_0B6_
FNDA:809,_RNCNvMNtCsadPz79N6wDl_11calypso_cli8templateNtB4_11TemplateSet8validates2_0B6_
FNDA:1740,_RNCNvMNtCsadPz79N6wDl_11calypso_cli8templateNtB4_11TemplateSet8validates3_0B6_
FNDA:1,_RNCNvMNtCsadPz79N6wDl_11calypso_cli8templateNtB4_11TemplateSet8validates4_0B6_
FNDA:1731,_RNCNvMNtCsadPz79N6wDl_11calypso_cli8templateNtB4_11TemplateSet8validates5_0B6_
FNDA:1754,_RNCNvMNtCsadPz79N6wDl_11calypso_cli8templateNtB4_11TemplateSet8validates_0B6_
FNDA:54,_RNCNvNtCsadPz79N6wDl_11calypso_cli8template29resolve_template_set_for_path0B5_
FNDA:3,_RNCNvNtCsadPz79N6wDl_11calypso_cli8template29resolve_template_set_for_paths_0B5_
FNDA:0,_RNCNvMNtCsk43tzqYvrEx_11calypso_cli8templateNtB4_11TemplateSet18validate_coherence0B6_
FNDA:0,_RNCNvMNtCsk43tzqYvrEx_11calypso_cli8templateNtB4_11TemplateSet18validate_coherences0_0B6_
FNDA:0,_RNCNvMNtCsk43tzqYvrEx_11calypso_cli8templateNtB4_11TemplateSet18validate_coherences_0B6_
FNDA:0,_RNCNvNtCsk43tzqYvrEx_11calypso_cli8template29resolve_template_set_for_path0B5_
FNDA:0,_RNCNvNtCsk43tzqYvrEx_11calypso_cli8template29resolve_template_set_for_paths_0B5_
FNDA:0,_RNvMNtCsk43tzqYvrEx_11calypso_cli8templateNtB2_11TemplateSet18validate_coherence
FNDA:0,_RNvMNtCsk43tzqYvrEx_11calypso_cli8templateNtB2_11TemplateSet19load_from_directory
FNDA:0,_RNvNtCsk43tzqYvrEx_11calypso_cli8template18merge_yaml_strings
FNDA:0,_RNvNtCsk43tzqYvrEx_11calypso_cli8template29resolve_template_set_for_path
FNDA:13,_RNvMNtCsk43tzqYvrEx_11calypso_cli8templateNtB2_11TemplateSet12task_by_name
FNDA:29,_RNvMNtCsk43tzqYvrEx_11calypso_cli8templateNtB2_11TemplateSet17from_yaml_strings
FNDA:1,_RNvMNtCsk43tzqYvrEx_11calypso_cli8templateNtB2_11TemplateSet18function_for_state
FNDA:2,_RNvMNtCsk43tzqYvrEx_11calypso_cli8templateNtB2_11TemplateSet19step_type_for_state
FNDA:29,_RNvMNtCsk43tzqYvrEx_11calypso_cli8templateNtB2_11TemplateSet8validate
FNDA:42,_RNvMs_NtCsk43tzqYvrEx_11calypso_cli8templateNtB4_15StateDefinition4name
FNDA:1,_RNvMs_NtCsk43tzqYvrEx_11calypso_cli8templateNtB4_15StateDefinition9step_type
FNDA:35,_RNvNtCsk43tzqYvrEx_11calypso_cli8template20validate_policy_gate
FNDA:4,_RNvNtCsk43tzqYvrEx_11calypso_cli8template26load_embedded_template_set
FNDA:0,_RNvXs0_NtCsk43tzqYvrEx_11calypso_cli8templateNtB5_13TemplateErrorNtNtCs3XFJfFEDSOQ_4core3fmt7Display3fmt
FNDA:27,_RNCNvMNtCsk43tzqYvrEx_11calypso_cli8templateNtB4_11TemplateSet12task_by_name0B6_
FNDA:1,_RNCNvMNtCsk43tzqYvrEx_11calypso_cli8templateNtB4_11TemplateSet18function_for_state0B6_
FNDA:1,_RNCNvMNtCsk43tzqYvrEx_11calypso_cli8templateNtB4_11TemplateSet18function_for_states_0B6_
FNDA:12,_RNCNvMNtCsk43tzqYvrEx_11calypso_cli8templateNtB4_11TemplateSet19step_type_for_state0B6_
FNDA:1,_RNCNvMNtCsk43tzqYvrEx_11calypso_cli8templateNtB4_11TemplateSet19step_type_for_states_0B6_
FNDA:29,_RNCNvMNtCsk43tzqYvrEx_11calypso_cli8templateNtB4_11TemplateSet8validate0B6_
FNDA:0,_RNCNvMNtCsk43tzqYvrEx_11calypso_cli8templateNtB4_11TemplateSet8validates0_0B6_
FNDA:0,_RNCNvMNtCsk43tzqYvrEx_11calypso_cli8templateNtB4_11TemplateSet8validates1_0B6_
FNDA:95,_RNCNvMNtCsk43tzqYvrEx_11calypso_cli8templateNtB4_11TemplateSet8validates2_0B6_
FNDA:171,_RNCNvMNtCsk43tzqYvrEx_11calypso_cli8templateNtB4_11TemplateSet8validates3_0B6_
FNDA:0,_RNCNvMNtCsk43tzqYvrEx_11calypso_cli8templateNtB4_11TemplateSet8validates4_0B6_
FNDA:171,_RNCNvMNtCsk43tzqYvrEx_11calypso_cli8templateNtB4_11TemplateSet8validates5_0B6_
FNDA:171,_RNCNvMNtCsk43tzqYvrEx_11calypso_cli8templateNtB4_11TemplateSet8validates_0B6_
FNF:32
FNH:32
DA:26,156
DA:27,156
DA:28,156
DA:29,156
DA:30,156
DA:31,155
DA:32,156
DA:33,155
DA:34,155
DA:37,155
DA:38,135
DA:39,156
DA:46,23
DA:47,23
DA:48,23
DA:49,23
DA:51,23
DA:52,17
DA:53,17
DA:55,6
DA:58,22
DA:59,16
DA:60,15
DA:62,6
DA:65,21
DA:66,16
DA:67,15
DA:69,5
DA:72,20
DA:73,23
DA:75,155
DA:76,155
DA:77,1
DA:78,1
DA:79,1
DA:80,154
DA:82,154
DA:83,154
DA:84,154
DA:85,154
DA:86,161
DA:88,1
DA:89,1
DA:90,1
DA:91,1
DA:92,153
DA:94,153
DA:95,1
DA:96,1
DA:97,1
DA:98,152
DA:100,152
DA:101,152
DA:102,152
DA:103,152
DA:104,1925
DA:105,152
DA:107,1059
DA:108,913
DA:109,1
DA:110,1
DA:111,1
DA:112,1
DA:113,912
DA:115,2826
DA:116,1919
DA:117,2
DA:118,2
DA:119,2
DA:120,2
DA:121,2
DA:123,1917
DA:125,230
DA:126,1
DA:127,1
DA:128,1
DA:129,1
DA:130,229
DA:133,1389
DA:134,1
DA:135,1
DA:136,1
DA:137,1
DA:138,1
DA:140,1388
DA:141,1
DA:142,1
DA:143,1
DA:144,1
DA:145,1387
DA:147,298
DA:152,146
DA:153,146
DA:154,146
DA:155,146
DA:156,904
DA:157,1911
DA:158,146
DA:160,511
DA:161,375
DA:162,375
DA:163,375
DA:164,1
DA:165,1
DA:166,1
DA:167,1
DA:168,1
DA:170,374
DA:171,374
DA:172,374
DA:174,374
DA:175,1
DA:176,1
DA:177,1
DA:178,1
DA:179,373
DA:181,373
DA:182,373
DA:183,373
DA:184,373
DA:186,373
DA:187,1
DA:188,1
DA:189,1
DA:190,1
DA:191,372
DA:193,372
DA:196,136
DA:197,136
DA:198,136
DA:199,136
DA:200,1902
DA:201,136
DA:203,227
DA:204,227
DA:205,1
DA:206,1
DA:207,1
DA:208,226
DA:211,135
DA:212,155
DA:219,9
DA:220,9
DA:222,9
DA:223,9
DA:224,9
DA:225,9
DA:226,60
DA:227,9
DA:229,9
DA:230,39
DA:242,40
DA:243,91
DA:244,60
DA:245,1
DA:246,1
DA:247,1
DA:248,1
DA:249,59
DA:252,60
DA:253,166
DA:254,112
DA:255,1
DA:256,1
DA:257,1
DA:258,1
DA:259,111
DA:261,6
DA:264,60
DA:265,1
DA:266,1
DA:267,1
DA:268,1
DA:269,1
DA:270,1
DA:271,59
DA:276,69
DA:277,60
DA:278,39
DA:280,39
DA:281,39
DA:282,115
DA:283,39
DA:284,1
DA:285,1
DA:286,1
DA:287,1
DA:288,38
DA:289,21
DA:293,92
DA:294,83
DA:295,1
DA:296,1
DA:297,1
DA:298,1
DA:299,82
DA:300,83
DA:301,1
DA:302,1
DA:303,1
DA:304,1
DA:305,82
DA:308,9
DA:309,9
DA:311,220
DA:312,2661
DA:313,220
DA:316,23
DA:317,23
DA:318,23
DA:319,23
DA:320,102
DA:321,23
DA:322,23
DA:323,23
DA:326,4
DA:327,4
DA:328,4
DA:329,4
DA:330,19
DA:331,4
DA:332,0
DA:333,3
DA:334,3
DA:335,4
DA:340,47
DA:341,47
DA:342,47
DA:343,46
DA:344,47
DA:346,45
DA:347,46
DA:349,160
DA:350,115
DA:351,115
DA:352,1
DA:354,46
DA:355,47
DA:357,64
DA:358,64
DA:359,64
DA:360,64
DA:361,64
DA:363,64
DA:365,18
DA:366,18
DA:367,18
DA:368,18
DA:370,18
DA:371,18
DA:372,18
DA:373,18
DA:374,18
DA:375,54
DA:377,18
DA:378,15
DA:379,3
DA:381,3
DA:382,1
DA:383,1
DA:384,1
DA:385,1
DA:386,1
DA:387,1
DA:388,3
DA:389,1
DA:391,1
DA:392,1
DA:393,1
DA:394,1
DA:395,2
DA:397,2
DA:398,2
DA:399,2
DA:401,1
DA:402,18
DA:417,417
DA:418,417
DA:419,415
DA:420,2
DA:422,417
DA:424,26
DA:425,26
DA:426,23
DA:427,3
DA:429,26
DA:608,25
DA:609,25
DA:610,1
DA:611,1
DA:612,23
DA:614,25
DA:619,372
DA:620,372
DA:621,372
DA:622,297
DA:623,224
DA:624,222
DA:625,1
DA:626,1
DA:627,1
DA:628,1
DA:629,221
DA:631,221
DA:632,1
DA:633,1
DA:634,1
DA:635,1
DA:636,220
DA:638,150
DA:639,75
DA:640,1
DA:641,1
DA:642,1
DA:643,1
DA:644,74
DA:646,74
DA:647,1
DA:648,1
DA:649,1
DA:650,1
DA:651,73
DA:653,75
DA:654,74
DA:655,1
DA:656,1
DA:657,1
DA:658,1
DA:659,73
DA:662,1
DA:663,1
DA:664,1
DA:665,1
DA:669,366
DA:670,1
DA:671,1
DA:672,1
DA:673,1
DA:674,365
DA:676,365
DA:677,372
BRF:0
BRH:0
LF:362
LH:361
end_of_record
SF:/home/lucas/calypso/.claude/worktrees/agent-a62ed768/cli/src/tui.rs
FN:886,_RINvMs1_NtCsadPz79N6wDl_11calypso_cli3tuiNtB6_15OperatorSurface12render_panedNtNtNtCsHIej2QEFI5_3std2io4util4SinkEB8_
FN:1049,_RINvMs1_NtCsadPz79N6wDl_11calypso_cli3tuiNtB6_15OperatorSurface23render_operator_sidebarNtNtNtCsHIej2QEFI5_3std2io4util4SinkEB8_
FN:1150,_RINvMs1_NtCsadPz79N6wDl_11calypso_cli3tuiNtB6_15OperatorSurface25render_operator_input_rowNtNtNtCsHIej2QEFI5_3std2io4util4SinkEB8_
FN:895,_RINvMs1_NtCsadPz79N6wDl_11calypso_cli3tuiNtB6_15OperatorSurface25render_operator_main_paneNtNtNtCsHIej2QEFI5_3std2io4util4SinkEB8_
FN:1185,_RINvMs2_NtCsadPz79N6wDl_11calypso_cli3tuiNtB6_13DoctorSurface12render_panedNtNtNtCsHIej2QEFI5_3std2io4util4SinkEB8_
FN:1869,_RINvMs7_NtCsadPz79N6wDl_11calypso_cli3tuiNtB6_19StateMachineSurface12render_panedNtNtNtCsHIej2QEFI5_3std2io4util4SinkEB8_
FN:2202,_RINvMs9_NtCsadPz79N6wDl_11calypso_cli3tuiNtB6_8AppShell12render_panedNtNtNtCsHIej2QEFI5_3std2io4util4SinkEB8_
FN:765,_RINvNtCsadPz79N6wDl_11calypso_cli3tui14run_watch_withNvB2_20run_terminal_surfaceEB4_
FN:2221,_RINvNtCsadPz79N6wDl_11calypso_cli3tui17render_app_ribbonNtNtNtCsHIej2QEFI5_3std2io4util4SinkEB4_
FN:2281,_RINvNtCsadPz79N6wDl_11calypso_cli3tui22render_agents_scaffoldNtNtNtCsHIej2QEFI5_3std2io4util4SinkEB4_
FN:508,_RINvNtCsadPz79N6wDl_11calypso_cli3tui22run_terminal_iterationNtNtNtCsHIej2QEFI5_3std2io4util4SinkEB4_
FN:871,_RINvNtCsadPz79N6wDl_11calypso_cli3tui23render_vertical_dividerNtNtNtCsHIej2QEFI5_3std2io4util4SinkEB4_
FN:2251,_RINvNtCsadPz79N6wDl_11calypso_cli3tui25render_placeholder_screenNtNtNtCsHIej2QEFI5_3std2io4util4SinkEB4_
FN:1164,_RINvNtCsadPz79N6wDl_11calypso_cli3tui33render_keybinding_ribbon_operatorNtNtNtCsHIej2QEFI5_3std2io4util4SinkEB4_
FN:852,_RINvNtCsadPz79N6wDl_11calypso_cli3tui8write_atNtNtNtCsHIej2QEFI5_3std2io4util4SinkEB4_
FN:984,_RNCINvMs1_NtCsadPz79N6wDl_11calypso_cli3tuiNtB8_15OperatorSurface25render_operator_main_paneNtNtNtCsHIej2QEFI5_3std2io4util4SinkE0Ba_
FN:1192,_RNCINvMs2_NtCsadPz79N6wDl_11calypso_cli3tuiNtB8_13DoctorSurface12render_panedNtNtNtCsHIej2QEFI5_3std2io4util4SinkE0Ba_
FN:770,_RNCINvNtCsadPz79N6wDl_11calypso_cli3tui14run_watch_withNvB4_20run_terminal_surfaceE0B6_
FN:774,_RNCINvNtCsadPz79N6wDl_11calypso_cli3tui14run_watch_withNvB4_20run_terminal_surfaceEs0_0B6_
FN:771,_RNCINvNtCsadPz79N6wDl_11calypso_cli3tui14run_watch_withNvB4_20run_terminal_surfaceEs_0B6_
FN:1684,_RNCNCNvMs7_NtCsadPz79N6wDl_11calypso_cli3tuiNtB9_19StateMachineSurface18from_feature_state00Bb_
FN:1693,_RNCNCNvMs7_NtCsadPz79N6wDl_11calypso_cli3tuiNtB9_19StateMachineSurface18from_feature_state0s_0Bb_
FN:144,_RNCNCNvMs_NtCsadPz79N6wDl_11calypso_cli3tuiNtB8_15OperatorSurface18from_feature_states0_00Ba_
FN:119,_RNCNCNvMs_NtCsadPz79N6wDl_11calypso_cli3tuiNtB8_15OperatorSurface18from_feature_states_00Ba_
FN:1479,_RNCNvMs4_NtCsadPz79N6wDl_11calypso_cli3tuiNtB7_13DoctorSurface18apply_selected_fix0B9_
FN:1364,_RNCNvMs4_NtCsadPz79N6wDl_11calypso_cli3tuiNtB7_13DoctorSurface6render0B9_
FN:1348,_RNCNvMs4_NtCsadPz79N6wDl_11calypso_cli3tuiNtB7_13DoctorSurface7refresh0B9_
FN:1767,_RNCNvMs7_NtCsadPz79N6wDl_11calypso_cli3tuiNtB7_19StateMachineSurface12visible_rows0B9_
FN:1801,_RNCNvMs7_NtCsadPz79N6wDl_11calypso_cli3tuiNtB7_19StateMachineSurface12visible_rowss1_0B9_
FN:1774,_RNCNvMs7_NtCsadPz79N6wDl_11calypso_cli3tuiNtB7_19StateMachineSurface12visible_rowss_0B9_
FN:2000,_RNCNvMs7_NtCsadPz79N6wDl_11calypso_cli3tuiNtB7_19StateMachineSurface16handle_key_event0B9_
FN:1680,_RNCNvMs7_NtCsadPz79N6wDl_11calypso_cli3tuiNtB7_19StateMachineSurface18from_feature_state0B9_
FN:1721,_RNCNvMs7_NtCsadPz79N6wDl_11calypso_cli3tuiNtB7_19StateMachineSurface18from_feature_states0_0B9_
FN:1745,_RNCNvMs7_NtCsadPz79N6wDl_11calypso_cli3tuiNtB7_19StateMachineSurface18from_feature_states1_0B9_
FN:1706,_RNCNvMs7_NtCsadPz79N6wDl_11calypso_cli3tuiNtB7_19StateMachineSurface18from_feature_states_0B9_
FN:368,_RNCNvMs_NtCsadPz79N6wDl_11calypso_cli3tuiNtB6_15OperatorSurface13focus_session0B8_
FN:347,_RNCNvMs_NtCsadPz79N6wDl_11calypso_cli3tuiNtB6_15OperatorSurface16handle_key_event0B8_
FN:97,_RNCNvMs_NtCsadPz79N6wDl_11calypso_cli3tuiNtB6_15OperatorSurface18from_feature_state0B8_
FN:135,_RNCNvMs_NtCsadPz79N6wDl_11calypso_cli3tuiNtB6_15OperatorSurface18from_feature_states0_0B8_
FN:154,_RNCNvMs_NtCsadPz79N6wDl_11calypso_cli3tuiNtB6_15OperatorSurface18from_feature_states1_0B8_
FN:111,_RNCNvMs_NtCsadPz79N6wDl_11calypso_cli3tuiNtB6_15OperatorSurface18from_feature_states_0B8_
FN:588,_RNCNvNtCsadPz79N6wDl_11calypso_cli3tui15queue_follow_up0B5_
FN:2351,_RNCNvNtCsadPz79N6wDl_11calypso_cli3tui18run_doctor_surface0B5_
FN:610,_RNCNvNtCsadPz79N6wDl_11calypso_cli3tui20answer_clarification0B5_
FN:688,_RNCNvNtCsadPz79N6wDl_11calypso_cli3tui24render_workflow_pipeline0B5_
FN:692,_RNCNvNtCsadPz79N6wDl_11calypso_cli3tui24render_workflow_pipelines_0B5_
FN:1514,_RNCNvNtCsadPz79N6wDl_11calypso_cli3tui30doctor_check_views_from_report0B5_
FN:638,_RNCNvNtCsadPz79N6wDl_11calypso_cli3tui35pending_clarifications_from_feature0B5_
FN:640,_RNCNvNtCsadPz79N6wDl_11calypso_cli3tui35pending_clarifications_from_features_0B5_
FN:758,_RNCNvNtCsadPz79N6wDl_11calypso_cli3tui9run_watch0B5_
FN:35,_RNvMNtCsadPz79N6wDl_11calypso_cli3tuiNtB2_11InputBuffer4push
FN:52,_RNvMNtCsadPz79N6wDl_11calypso_cli3tuiNtB2_11InputBuffer6as_str
FN:43,_RNvMNtCsadPz79N6wDl_11calypso_cli3tuiNtB2_11InputBuffer6submit
FN:39,_RNvMNtCsadPz79N6wDl_11calypso_cli3tuiNtB2_11InputBuffer9backspace
FN:824,_RNvMs0_NtCsadPz79N6wDl_11calypso_cli3tuiNtB5_11PanedLayout9from_size
FN:1319,_RNvMs3_NtCsadPz79N6wDl_11calypso_cli3tuiNtB5_15DoctorCheckView12has_auto_fix
FN:1498,_RNvMs4_NtCsadPz79N6wDl_11calypso_cli3tuiNtB5_13DoctorSurface11check_count
FN:1431,_RNvMs4_NtCsadPz79N6wDl_11calypso_cli3tuiNtB5_13DoctorSurface16handle_key_event
FN:1472,_RNvMs4_NtCsadPz79N6wDl_11calypso_cli3tuiNtB5_13DoctorSurface18apply_selected_fix
FN:1336,_RNvMs4_NtCsadPz79N6wDl_11calypso_cli3tuiNtB5_13DoctorSurface3new
FN:1360,_RNvMs4_NtCsadPz79N6wDl_11calypso_cli3tuiNtB5_13DoctorSurface6render
FN:1347,_RNvMs4_NtCsadPz79N6wDl_11calypso_cli3tuiNtB5_13DoctorSurface7refresh
FN:1493,_RNvMs4_NtCsadPz79N6wDl_11calypso_cli3tuiNtB5_13DoctorSurface8selected
FN:1570,_RNvMs5_NtCsadPz79N6wDl_11calypso_cli3tuiNtB5_8SmStatus4icon
FN:2008,_RNvMs7_NtCsadPz79N6wDl_11calypso_cli3tuiNtB5_19StateMachineSurface11expand_node
FN:1753,_RNvMs7_NtCsadPz79N6wDl_11calypso_cli3tuiNtB5_19StateMachineSurface12visible_rows
FN:2023,_RNvMs7_NtCsadPz79N6wDl_11calypso_cli3tuiNtB5_19StateMachineSurface13adjust_scroll
FN:1955,_RNvMs7_NtCsadPz79N6wDl_11calypso_cli3tuiNtB5_19StateMachineSurface16handle_key_event
FN:1676,_RNvMs7_NtCsadPz79N6wDl_11calypso_cli3tuiNtB5_19StateMachineSurface18from_feature_state
FN:1663,_RNvMs7_NtCsadPz79N6wDl_11calypso_cli3tuiNtB5_19StateMachineSurface3new
FN:2077,_RNvMs8_NtCsadPz79N6wDl_11calypso_cli3tuiNtB5_6AppTab12screen_hints
FN:2085,_RNvMs8_NtCsadPz79N6wDl_11calypso_cli3tuiNtB5_6AppTab4next
FN:2093,_RNvMs8_NtCsadPz79N6wDl_11calypso_cli3tuiNtB5_6AppTab4prev
FN:2068,_RNvMs8_NtCsadPz79N6wDl_11calypso_cli3tuiNtB5_6AppTab5label
FN:2144,_RNvMs9_NtCsadPz79N6wDl_11calypso_cli3tuiNtB5_8AppShell13with_operator
FN:2149,_RNvMs9_NtCsadPz79N6wDl_11calypso_cli3tuiNtB5_8AppShell16handle_key_event
FN:2130,_RNvMs9_NtCsadPz79N6wDl_11calypso_cli3tuiNtB5_8AppShell3new
FN:2139,_RNvMs9_NtCsadPz79N6wDl_11calypso_cli3tuiNtB5_8AppShell7with_sm
FN:364,_RNvMs_NtCsadPz79N6wDl_11calypso_cli3tuiNtB4_15OperatorSurface13focus_session
FN:290,_RNvMs_NtCsadPz79N6wDl_11calypso_cli3tuiNtB4_15OperatorSurface16handle_key_event
FN:372,_RNvMs_NtCsadPz79N6wDl_11calypso_cli3tuiNtB4_15OperatorSurface16selected_session
FN:88,_RNvMs_NtCsadPz79N6wDl_11calypso_cli3tuiNtB4_15OperatorSurface18from_feature_state
FN:358,_RNvMs_NtCsadPz79N6wDl_11calypso_cli3tuiNtB4_15OperatorSurface27pending_clarification_count
FN:163,_RNvMs_NtCsadPz79N6wDl_11calypso_cli3tuiNtB4_15OperatorSurface6render
FN:1526,_RNvNtCsadPz79N6wDl_11calypso_cli3tui11sm_pipeline
FN:1540,_RNvNtCsadPz79N6wDl_11calypso_cli3tui13sm_step_label
FN:2037,_RNvNtCsadPz79N6wDl_11calypso_cli3tui14sm_gate_status
FN:668,_RNvNtCsadPz79N6wDl_11calypso_cli3tui14workflow_label
FN:587,_RNvNtCsadPz79N6wDl_11calypso_cli3tui15queue_follow_up
FN:708,_RNvNtCsadPz79N6wDl_11calypso_cli3tui17gate_status_label
FN:2348,_RNvNtCsadPz79N6wDl_11calypso_cli3tui18run_doctor_surface
FN:736,_RNvNtCsadPz79N6wDl_11calypso_cli3tui19github_review_label
FN:606,_RNvNtCsadPz79N6wDl_11calypso_cli3tui20answer_clarification
FN:420,_RNvNtCsadPz79N6wDl_11calypso_cli3tui20run_terminal_surface
FN:726,_RNvNtCsadPz79N6wDl_11calypso_cli3tui20session_status_label
FN:2046,_RNvNtCsadPz79N6wDl_11calypso_cli3tui20sm_gate_group_status
FN:777,_RNvNtCsadPz79N6wDl_11calypso_cli3tui21evidence_status_label
FN:2243,_RNvNtCsadPz79N6wDl_11calypso_cli3tui21placeholder_key_event
FN:717,_RNvNtCsadPz79N6wDl_11calypso_cli3tui23gate_group_status_label
FN:675,_RNvNtCsadPz79N6wDl_11calypso_cli3tui24render_workflow_pipeline
FN:744,_RNvNtCsadPz79N6wDl_11calypso_cli3tui25github_mergeability_label
FN:621,_RNvNtCsadPz79N6wDl_11calypso_cli3tui25interrupt_active_sessions
FN:1509,_RNvNtCsadPz79N6wDl_11calypso_cli3tui30doctor_check_views_from_report
FN:634,_RNvNtCsadPz79N6wDl_11calypso_cli3tui35pending_clarifications_from_feature
FN:757,_RNvNtCsadPz79N6wDl_11calypso_cli3tui9run_watch
FN:1656,_RNvXs6_NtCsadPz79N6wDl_11calypso_cli3tuiNtB5_19StateMachineSurfaceNtNtCs3XFJfFEDSOQ_4core7default7Default7default
FN:886,_RINvMs1_NtCsk43tzqYvrEx_11calypso_cli3tuiNtB6_15OperatorSurface12render_panedpEB8_
FN:1049,_RINvMs1_NtCsk43tzqYvrEx_11calypso_cli3tuiNtB6_15OperatorSurface23render_operator_sidebarpEB8_
FN:1150,_RINvMs1_NtCsk43tzqYvrEx_11calypso_cli3tuiNtB6_15OperatorSurface25render_operator_input_rowpEB8_
FN:895,_RINvMs1_NtCsk43tzqYvrEx_11calypso_cli3tuiNtB6_15OperatorSurface25render_operator_main_panepEB8_
FN:1185,_RINvMs2_NtCsk43tzqYvrEx_11calypso_cli3tuiNtB6_13DoctorSurface12render_panedpEB8_
FN:1869,_RINvMs7_NtCsk43tzqYvrEx_11calypso_cli3tuiNtB6_19StateMachineSurface12render_panedpEB8_
FN:2202,_RINvMs9_NtCsk43tzqYvrEx_11calypso_cli3tuiNtB6_8AppShell12render_panedpEB8_
FN:765,_RINvNtCsk43tzqYvrEx_11calypso_cli3tui14run_watch_withpEB4_
FN:2221,_RINvNtCsk43tzqYvrEx_11calypso_cli3tui17render_app_ribbonpEB4_
FN:2281,_RINvNtCsk43tzqYvrEx_11calypso_cli3tui22render_agents_scaffoldpEB4_
FN:508,_RINvNtCsk43tzqYvrEx_11calypso_cli3tui22run_terminal_iterationpEB4_
FN:871,_RINvNtCsk43tzqYvrEx_11calypso_cli3tui23render_vertical_dividerpEB4_
FN:2251,_RINvNtCsk43tzqYvrEx_11calypso_cli3tui25render_placeholder_screenpEB4_
FN:1164,_RINvNtCsk43tzqYvrEx_11calypso_cli3tui33render_keybinding_ribbon_operatorpEB4_
FN:852,_RINvNtCsk43tzqYvrEx_11calypso_cli3tui8write_atpEB4_
FN:984,_RNCINvMs1_NtCsk43tzqYvrEx_11calypso_cli3tuiNtB8_15OperatorSurface25render_operator_main_panepE0Ba_
FN:1192,_RNCINvMs2_NtCsk43tzqYvrEx_11calypso_cli3tuiNtB8_13DoctorSurface12render_panedpE0Ba_
FN:770,_RNCINvNtCsk43tzqYvrEx_11calypso_cli3tui14run_watch_withpE0B6_
FN:774,_RNCINvNtCsk43tzqYvrEx_11calypso_cli3tui14run_watch_withpEs0_0B6_
FN:771,_RNCINvNtCsk43tzqYvrEx_11calypso_cli3tui14run_watch_withpEs_0B6_
FN:1684,_RNCNCNvMs7_NtCsk43tzqYvrEx_11calypso_cli3tuiNtB9_19StateMachineSurface18from_feature_state00Bb_
FN:1693,_RNCNCNvMs7_NtCsk43tzqYvrEx_11calypso_cli3tuiNtB9_19StateMachineSurface18from_feature_state0s_0Bb_
FN:144,_RNCNCNvMs_NtCsk43tzqYvrEx_11calypso_cli3tuiNtB8_15OperatorSurface18from_feature_states0_00Ba_
FN:119,_RNCNCNvMs_NtCsk43tzqYvrEx_11calypso_cli3tuiNtB8_15OperatorSurface18from_feature_states_00Ba_
FN:1479,_RNCNvMs4_NtCsk43tzqYvrEx_11calypso_cli3tuiNtB7_13DoctorSurface18apply_selected_fix0B9_
FN:1364,_RNCNvMs4_NtCsk43tzqYvrEx_11calypso_cli3tuiNtB7_13DoctorSurface6render0B9_
FN:1348,_RNCNvMs4_NtCsk43tzqYvrEx_11calypso_cli3tuiNtB7_13DoctorSurface7refresh0B9_
FN:1767,_RNCNvMs7_NtCsk43tzqYvrEx_11calypso_cli3tuiNtB7_19StateMachineSurface12visible_rows0B9_
FN:1801,_RNCNvMs7_NtCsk43tzqYvrEx_11calypso_cli3tuiNtB7_19StateMachineSurface12visible_rowss1_0B9_
FN:1774,_RNCNvMs7_NtCsk43tzqYvrEx_11calypso_cli3tuiNtB7_19StateMachineSurface12visible_rowss_0B9_
FN:2000,_RNCNvMs7_NtCsk43tzqYvrEx_11calypso_cli3tuiNtB7_19StateMachineSurface16handle_key_event0B9_
FN:1680,_RNCNvMs7_NtCsk43tzqYvrEx_11calypso_cli3tuiNtB7_19StateMachineSurface18from_feature_state0B9_
FN:1721,_RNCNvMs7_NtCsk43tzqYvrEx_11calypso_cli3tuiNtB7_19StateMachineSurface18from_feature_states0_0B9_
FN:1745,_RNCNvMs7_NtCsk43tzqYvrEx_11calypso_cli3tuiNtB7_19StateMachineSurface18from_feature_states1_0B9_
FN:1706,_RNCNvMs7_NtCsk43tzqYvrEx_11calypso_cli3tuiNtB7_19StateMachineSurface18from_feature_states_0B9_
FN:368,_RNCNvMs_NtCsk43tzqYvrEx_11calypso_cli3tuiNtB6_15OperatorSurface13focus_session0B8_
FN:347,_RNCNvMs_NtCsk43tzqYvrEx_11calypso_cli3tuiNtB6_15OperatorSurface16handle_key_event0B8_
FN:97,_RNCNvMs_NtCsk43tzqYvrEx_11calypso_cli3tuiNtB6_15OperatorSurface18from_feature_state0B8_
FN:135,_RNCNvMs_NtCsk43tzqYvrEx_11calypso_cli3tuiNtB6_15OperatorSurface18from_feature_states0_0B8_
FN:154,_RNCNvMs_NtCsk43tzqYvrEx_11calypso_cli3tuiNtB6_15OperatorSurface18from_feature_states1_0B8_
FN:111,_RNCNvMs_NtCsk43tzqYvrEx_11calypso_cli3tuiNtB6_15OperatorSurface18from_feature_states_0B8_
FN:588,_RNCNvNtCsk43tzqYvrEx_11calypso_cli3tui15queue_follow_up0B5_
FN:2351,_RNCNvNtCsk43tzqYvrEx_11calypso_cli3tui18run_doctor_surface0B5_
FN:610,_RNCNvNtCsk43tzqYvrEx_11calypso_cli3tui20answer_clarification0B5_
FN:688,_RNCNvNtCsk43tzqYvrEx_11calypso_cli3tui24render_workflow_pipeline0B5_
FN:692,_RNCNvNtCsk43tzqYvrEx_11calypso_cli3tui24render_workflow_pipelines_0B5_
FN:1514,_RNCNvNtCsk43tzqYvrEx_11calypso_cli3tui30doctor_check_views_from_report0B5_
FN:638,_RNCNvNtCsk43tzqYvrEx_11calypso_cli3tui35pending_clarifications_from_feature0B5_
FN:640,_RNCNvNtCsk43tzqYvrEx_11calypso_cli3tui35pending_clarifications_from_features_0B5_
FN:758,_RNCNvNtCsk43tzqYvrEx_11calypso_cli3tui9run_watch0B5_
FN:35,_RNvMNtCsk43tzqYvrEx_11calypso_cli3tuiNtB2_11InputBuffer4push
FN:52,_RNvMNtCsk43tzqYvrEx_11calypso_cli3tuiNtB2_11InputBuffer6as_str
FN:43,_RNvMNtCsk43tzqYvrEx_11calypso_cli3tuiNtB2_11InputBuffer6submit
FN:39,_RNvMNtCsk43tzqYvrEx_11calypso_cli3tuiNtB2_11InputBuffer9backspace
FN:824,_RNvMs0_NtCsk43tzqYvrEx_11calypso_cli3tuiNtB5_11PanedLayout9from_size
FN:1319,_RNvMs3_NtCsk43tzqYvrEx_11calypso_cli3tuiNtB5_15DoctorCheckView12has_auto_fix
FN:1498,_RNvMs4_NtCsk43tzqYvrEx_11calypso_cli3tuiNtB5_13DoctorSurface11check_count
FN:1431,_RNvMs4_NtCsk43tzqYvrEx_11calypso_cli3tuiNtB5_13DoctorSurface16handle_key_event
FN:1472,_RNvMs4_NtCsk43tzqYvrEx_11calypso_cli3tuiNtB5_13DoctorSurface18apply_selected_fix
FN:1336,_RNvMs4_NtCsk43tzqYvrEx_11calypso_cli3tuiNtB5_13DoctorSurface3new
FN:1360,_RNvMs4_NtCsk43tzqYvrEx_11calypso_cli3tuiNtB5_13DoctorSurface6render
FN:1347,_RNvMs4_NtCsk43tzqYvrEx_11calypso_cli3tuiNtB5_13DoctorSurface7refresh
FN:1493,_RNvMs4_NtCsk43tzqYvrEx_11calypso_cli3tuiNtB5_13DoctorSurface8selected
FN:1570,_RNvMs5_NtCsk43tzqYvrEx_11calypso_cli3tuiNtB5_8SmStatus4icon
FN:2008,_RNvMs7_NtCsk43tzqYvrEx_11calypso_cli3tuiNtB5_19StateMachineSurface11expand_node
FN:1753,_RNvMs7_NtCsk43tzqYvrEx_11calypso_cli3tuiNtB5_19StateMachineSurface12visible_rows
FN:2023,_RNvMs7_NtCsk43tzqYvrEx_11calypso_cli3tuiNtB5_19StateMachineSurface13adjust_scroll
FN:1955,_RNvMs7_NtCsk43tzqYvrEx_11calypso_cli3tuiNtB5_19StateMachineSurface16handle_key_event
FN:1676,_RNvMs7_NtCsk43tzqYvrEx_11calypso_cli3tuiNtB5_19StateMachineSurface18from_feature_state
FN:1663,_RNvMs7_NtCsk43tzqYvrEx_11calypso_cli3tuiNtB5_19StateMachineSurface3new
FN:2077,_RNvMs8_NtCsk43tzqYvrEx_11calypso_cli3tuiNtB5_6AppTab12screen_hints
FN:2085,_RNvMs8_NtCsk43tzqYvrEx_11calypso_cli3tuiNtB5_6AppTab4next
FN:2093,_RNvMs8_NtCsk43tzqYvrEx_11calypso_cli3tuiNtB5_6AppTab4prev
FN:2068,_RNvMs8_NtCsk43tzqYvrEx_11calypso_cli3tuiNtB5_6AppTab5label
FN:2144,_RNvMs9_NtCsk43tzqYvrEx_11calypso_cli3tuiNtB5_8AppShell13with_operator
FN:2149,_RNvMs9_NtCsk43tzqYvrEx_11calypso_cli3tuiNtB5_8AppShell16handle_key_event
FN:2130,_RNvMs9_NtCsk43tzqYvrEx_11calypso_cli3tuiNtB5_8AppShell3new
FN:2139,_RNvMs9_NtCsk43tzqYvrEx_11calypso_cli3tuiNtB5_8AppShell7with_sm
FN:364,_RNvMs_NtCsk43tzqYvrEx_11calypso_cli3tuiNtB4_15OperatorSurface13focus_session
FN:290,_RNvMs_NtCsk43tzqYvrEx_11calypso_cli3tuiNtB4_15OperatorSurface16handle_key_event
FN:372,_RNvMs_NtCsk43tzqYvrEx_11calypso_cli3tuiNtB4_15OperatorSurface16selected_session
FN:88,_RNvMs_NtCsk43tzqYvrEx_11calypso_cli3tuiNtB4_15OperatorSurface18from_feature_state
FN:358,_RNvMs_NtCsk43tzqYvrEx_11calypso_cli3tuiNtB4_15OperatorSurface27pending_clarification_count
FN:163,_RNvMs_NtCsk43tzqYvrEx_11calypso_cli3tuiNtB4_15OperatorSurface6render
FN:1526,_RNvNtCsk43tzqYvrEx_11calypso_cli3tui11sm_pipeline
FN:1540,_RNvNtCsk43tzqYvrEx_11calypso_cli3tui13sm_step_label
FN:2037,_RNvNtCsk43tzqYvrEx_11calypso_cli3tui14sm_gate_status
FN:668,_RNvNtCsk43tzqYvrEx_11calypso_cli3tui14workflow_label
FN:587,_RNvNtCsk43tzqYvrEx_11calypso_cli3tui15queue_follow_up
FN:708,_RNvNtCsk43tzqYvrEx_11calypso_cli3tui17gate_status_label
FN:2348,_RNvNtCsk43tzqYvrEx_11calypso_cli3tui18run_doctor_surface
FN:736,_RNvNtCsk43tzqYvrEx_11calypso_cli3tui19github_review_label
FN:606,_RNvNtCsk43tzqYvrEx_11calypso_cli3tui20answer_clarification
FN:420,_RNvNtCsk43tzqYvrEx_11calypso_cli3tui20run_terminal_surface
FN:726,_RNvNtCsk43tzqYvrEx_11calypso_cli3tui20session_status_label
FN:2046,_RNvNtCsk43tzqYvrEx_11calypso_cli3tui20sm_gate_group_status
FN:777,_RNvNtCsk43tzqYvrEx_11calypso_cli3tui21evidence_status_label
FN:2243,_RNvNtCsk43tzqYvrEx_11calypso_cli3tui21placeholder_key_event
FN:717,_RNvNtCsk43tzqYvrEx_11calypso_cli3tui23gate_group_status_label
FN:675,_RNvNtCsk43tzqYvrEx_11calypso_cli3tui24render_workflow_pipeline
FN:744,_RNvNtCsk43tzqYvrEx_11calypso_cli3tui25github_mergeability_label
FN:621,_RNvNtCsk43tzqYvrEx_11calypso_cli3tui25interrupt_active_sessions
FN:1509,_RNvNtCsk43tzqYvrEx_11calypso_cli3tui30doctor_check_views_from_report
FN:634,_RNvNtCsk43tzqYvrEx_11calypso_cli3tui35pending_clarifications_from_feature
FN:757,_RNvNtCsk43tzqYvrEx_11calypso_cli3tui9run_watch
FN:1656,_RNvXs6_NtCsk43tzqYvrEx_11calypso_cli3tuiNtB5_19StateMachineSurfaceNtNtCs3XFJfFEDSOQ_4core7default7Default7default
FN:886,_RINvMs1_NtCsadPz79N6wDl_11calypso_cli3tuiNtB6_15OperatorSurface12render_panedINtNtCsgag4BwXrjBQ_5alloc3vec3VechEECsiuwjv5F4qQV_3tui
FN:1049,_RINvMs1_NtCsadPz79N6wDl_11calypso_cli3tuiNtB6_15OperatorSurface23render_operator_sidebarINtNtCsgag4BwXrjBQ_5alloc3vec3VechEECsiuwjv5F4qQV_3tui
FN:1150,_RINvMs1_NtCsadPz79N6wDl_11calypso_cli3tuiNtB6_15OperatorSurface25render_operator_input_rowINtNtCsgag4BwXrjBQ_5alloc3vec3VechEECsiuwjv5F4qQV_3tui
FN:895,_RINvMs1_NtCsadPz79N6wDl_11calypso_cli3tuiNtB6_15OperatorSurface25render_operator_main_paneINtNtCsgag4BwXrjBQ_5alloc3vec3VechEECsiuwjv5F4qQV_3tui
FN:1869,_RINvMs7_NtCsadPz79N6wDl_11calypso_cli3tuiNtB6_19StateMachineSurface12render_panedINtNtCsgag4BwXrjBQ_5alloc3vec3VechEECsiuwjv5F4qQV_3tui
FN:871,_RINvNtCsadPz79N6wDl_11calypso_cli3tui23render_vertical_dividerINtNtCsgag4BwXrjBQ_5alloc3vec3VechEECsiuwjv5F4qQV_3tui
FN:1164,_RINvNtCsadPz79N6wDl_11calypso_cli3tui33render_keybinding_ribbon_operatorINtNtCsgag4BwXrjBQ_5alloc3vec3VechEECsiuwjv5F4qQV_3tui
FN:852,_RINvNtCsadPz79N6wDl_11calypso_cli3tui8write_atINtNtCsgag4BwXrjBQ_5alloc3vec3VechEECsiuwjv5F4qQV_3tui
FN:984,_RNCINvMs1_NtCsadPz79N6wDl_11calypso_cli3tuiNtB8_15OperatorSurface25render_operator_main_paneINtNtCsgag4BwXrjBQ_5alloc3vec3VechEE0Csiuwjv5F4qQV_3tui
FNDA:13,_RINvMs1_NtCsadPz79N6wDl_11calypso_cli3tuiNtB6_15OperatorSurface12render_panedNtNtNtCsHIej2QEFI5_3std2io4util4SinkEB8_
FNDA:13,_RINvMs1_NtCsadPz79N6wDl_11calypso_cli3tuiNtB6_15OperatorSurface23render_operator_sidebarNtNtNtCsHIej2QEFI5_3std2io4util4SinkEB8_
FNDA:13,_RINvMs1_NtCsadPz79N6wDl_11calypso_cli3tuiNtB6_15OperatorSurface25render_operator_input_rowNtNtNtCsHIej2QEFI5_3std2io4util4SinkEB8_
FNDA:13,_RINvMs1_NtCsadPz79N6wDl_11calypso_cli3tuiNtB6_15OperatorSurface25render_operator_main_paneNtNtNtCsHIej2QEFI5_3std2io4util4SinkEB8_
FNDA:6,_RINvMs2_NtCsadPz79N6wDl_11calypso_cli3tuiNtB6_13DoctorSurface12render_panedNtNtNtCsHIej2QEFI5_3std2io4util4SinkEB8_
FNDA:5,_RINvMs7_NtCsadPz79N6wDl_11calypso_cli3tuiNtB6_19StateMachineSurface12render_panedNtNtNtCsHIej2QEFI5_3std2io4util4SinkEB8_
FNDA:12,_RINvMs9_NtCsadPz79N6wDl_11calypso_cli3tuiNtB6_8AppShell12render_panedNtNtNtCsHIej2QEFI5_3std2io4util4SinkEB8_
FNDA:0,_RINvNtCsadPz79N6wDl_11calypso_cli3tui14run_watch_withNvB2_20run_terminal_surfaceEB4_
FNDA:12,_RINvNtCsadPz79N6wDl_11calypso_cli3tui17render_app_ribbonNtNtNtCsHIej2QEFI5_3std2io4util4SinkEB4_
FNDA:1,_RINvNtCsadPz79N6wDl_11calypso_cli3tui22render_agents_scaffoldNtNtNtCsHIej2QEFI5_3std2io4util4SinkEB4_
FNDA:14,_RINvNtCsadPz79N6wDl_11calypso_cli3tui22run_terminal_iterationNtNtNtCsHIej2QEFI5_3std2io4util4SinkEB4_
FNDA:13,_RINvNtCsadPz79N6wDl_11calypso_cli3tui23render_vertical_dividerNtNtNtCsHIej2QEFI5_3std2io4util4SinkEB4_
FNDA:1,_RINvNtCsadPz79N6wDl_11calypso_cli3tui25render_placeholder_screenNtNtNtCsHIej2QEFI5_3std2io4util4SinkEB4_
FNDA:13,_RINvNtCsadPz79N6wDl_11calypso_cli3tui33render_keybinding_ribbon_operatorNtNtNtCsHIej2QEFI5_3std2io4util4SinkEB4_
FNDA:874,_RINvNtCsadPz79N6wDl_11calypso_cli3tui8write_atNtNtNtCsHIej2QEFI5_3std2io4util4SinkEB4_
FNDA:5,_RNCINvMs1_NtCsadPz79N6wDl_11calypso_cli3tuiNtB8_15OperatorSurface25render_operator_main_paneNtNtNtCsHIej2QEFI5_3std2io4util4SinkE0Ba_
FNDA:48,_RNCINvMs2_NtCsadPz79N6wDl_11calypso_cli3tuiNtB8_13DoctorSurface12render_panedNtNtNtCsHIej2QEFI5_3std2io4util4SinkE0Ba_
FNDA:0,_RNCINvNtCsadPz79N6wDl_11calypso_cli3tui14run_watch_withNvB4_20run_terminal_surfaceE0B6_
FNDA:0,_RNCINvNtCsadPz79N6wDl_11calypso_cli3tui14run_watch_withNvB4_20run_terminal_surfaceEs0_0B6_
FNDA:0,_RNCINvNtCsadPz79N6wDl_11calypso_cli3tui14run_watch_withNvB4_20run_terminal_surfaceEs_0B6_
FNDA:24,_RNCNCNvMs7_NtCsadPz79N6wDl_11calypso_cli3tuiNtB9_19StateMachineSurface18from_feature_state00Bb_
FNDA:24,_RNCNCNvMs7_NtCsadPz79N6wDl_11calypso_cli3tuiNtB9_19StateMachineSurface18from_feature_state0s_0Bb_
FNDA:75,_RNCNCNvMs_NtCsadPz79N6wDl_11calypso_cli3tuiNtB8_15OperatorSurface18from_feature_states0_00Ba_
FNDA:79,_RNCNCNvMs_NtCsadPz79N6wDl_11calypso_cli3tuiNtB8_15OperatorSurface18from_feature_states_00Ba_
FNDA:1,_RNCNvMs4_NtCsadPz79N6wDl_11calypso_cli3tuiNtB7_13DoctorSurface18apply_selected_fix0B9_
FNDA:20,_RNCNvMs4_NtCsadPz79N6wDl_11calypso_cli3tuiNtB7_13DoctorSurface6render0B9_
FNDA:0,_RNCNvMs4_NtCsadPz79N6wDl_11calypso_cli3tuiNtB7_13DoctorSurface7refresh0B9_
FNDA:194,_RNCNvMs7_NtCsadPz79N6wDl_11calypso_cli3tuiNtB7_19StateMachineSurface12visible_rows0B9_
FNDA:24,_RNCNvMs7_NtCsadPz79N6wDl_11calypso_cli3tuiNtB7_19StateMachineSurface12visible_rowss1_0B9_
FNDA:558,_RNCNvMs7_NtCsadPz79N6wDl_11calypso_cli3tuiNtB7_19StateMachineSurface12visible_rowss_0B9_
FNDA:4,_RNCNvMs7_NtCsadPz79N6wDl_11calypso_cli3tuiNtB7_19StateMachineSurface16handle_key_event0B9_
FNDA:12,_RNCNvMs7_NtCsadPz79N6wDl_11calypso_cli3tuiNtB7_19StateMachineSurface18from_feature_state0B9_
FNDA:73,_RNCNvMs7_NtCsadPz79N6wDl_11calypso_cli3tuiNtB7_19StateMachineSurface18from_feature_states0_0B9_
FNDA:55,_RNCNvMs7_NtCsadPz79N6wDl_11calypso_cli3tuiNtB7_19StateMachineSurface18from_feature_states1_0B9_
FNDA:10,_RNCNvMs7_NtCsadPz79N6wDl_11calypso_cli3tuiNtB7_19StateMachineSurface18from_feature_states_0B9_
FNDA:7,_RNCNvMs_NtCsadPz79N6wDl_11calypso_cli3tuiNtB6_15OperatorSurface13focus_session0B8_
FNDA:2,_RNCNvMs_NtCsadPz79N6wDl_11calypso_cli3tuiNtB6_15OperatorSurface16handle_key_event0B8_
FNDA:4,_RNCNvMs_NtCsadPz79N6wDl_11calypso_cli3tuiNtB6_15OperatorSurface18from_feature_state0B8_
FNDA:51,_RNCNvMs_NtCsadPz79N6wDl_11calypso_cli3tuiNtB6_15OperatorSurface18from_feature_states0_0B8_
FNDA:51,_RNCNvMs_NtCsadPz79N6wDl_11calypso_cli3tuiNtB6_15OperatorSurface18from_feature_states1_0B8_
FNDA:79,_RNCNvMs_NtCsadPz79N6wDl_11calypso_cli3tuiNtB6_15OperatorSurface18from_feature_states_0B8_
FNDA:4,_RNCNvNtCsadPz79N6wDl_11calypso_cli3tui15queue_follow_up0B5_
FNDA:0,_RNCNvNtCsadPz79N6wDl_11calypso_cli3tui18run_doctor_surface0B5_
FNDA:1,_RNCNvNtCsadPz79N6wDl_11calypso_cli3tui20answer_clarification0B5_
FNDA:318,_RNCNvNtCsadPz79N6wDl_11calypso_cli3tui24render_workflow_pipeline0B5_
FNDA:199,_RNCNvNtCsadPz79N6wDl_11calypso_cli3tui24render_workflow_pipelines_0B5_
FNDA:16,_RNCNvNtCsadPz79N6wDl_11calypso_cli3tui30doctor_check_views_from_report0B5_
FNDA:7,_RNCNvNtCsadPz79N6wDl_11calypso_cli3tui35pending_clarifications_from_feature0B5_
FNDA:5,_RNCNvNtCsadPz79N6wDl_11calypso_cli3tui35pending_clarifications_from_features_0B5_
FNDA:0,_RNCNvNtCsadPz79N6wDl_11calypso_cli3tui9run_watch0B5_
FNDA:16,_RNvMNtCsadPz79N6wDl_11calypso_cli3tuiNtB2_11InputBuffer4push
FNDA:54,_RNvMNtCsadPz79N6wDl_11calypso_cli3tuiNtB2_11InputBuffer6as_str
FNDA:9,_RNvMNtCsadPz79N6wDl_11calypso_cli3tuiNtB2_11InputBuffer6submit
FNDA:2,_RNvMNtCsadPz79N6wDl_11calypso_cli3tuiNtB2_11InputBuffer9backspace
FNDA:13,_RNvMs0_NtCsadPz79N6wDl_11calypso_cli3tuiNtB5_11PanedLayout9from_size
FNDA:68,_RNvMs3_NtCsadPz79N6wDl_11calypso_cli3tuiNtB5_15DoctorCheckView12has_auto_fix
FNDA:2,_RNvMs4_NtCsadPz79N6wDl_11calypso_cli3tuiNtB5_13DoctorSurface11check_count
FNDA:17,_RNvMs4_NtCsadPz79N6wDl_11calypso_cli3tuiNtB5_13DoctorSurface16handle_key_event
FNDA:1,_RNvMs4_NtCsadPz79N6wDl_11calypso_cli3tuiNtB5_13DoctorSurface18apply_selected_fix
FNDA:14,_RNvMs4_NtCsadPz79N6wDl_11calypso_cli3tuiNtB5_13DoctorSurface3new
FNDA:5,_RNvMs4_NtCsadPz79N6wDl_11calypso_cli3tuiNtB5_13DoctorSurface6render
FNDA:1,_RNvMs4_NtCsadPz79N6wDl_11calypso_cli3tuiNtB5_13DoctorSurface7refresh
FNDA:6,_RNvMs4_NtCsadPz79N6wDl_11calypso_cli3tuiNtB5_13DoctorSurface8selected
FNDA:125,_RNvMs5_NtCsadPz79N6wDl_11calypso_cli3tuiNtB5_8SmStatus4icon
FNDA:3,_RNvMs7_NtCsadPz79N6wDl_11calypso_cli3tuiNtB5_19StateMachineSurface11expand_node
FNDA:64,_RNvMs7_NtCsadPz79N6wDl_11calypso_cli3tuiNtB5_19StateMachineSurface12visible_rows
FNDA:14,_RNvMs7_NtCsadPz79N6wDl_11calypso_cli3tuiNtB5_19StateMachineSurface13adjust_scroll
FNDA:42,_RNvMs7_NtCsadPz79N6wDl_11calypso_cli3tuiNtB5_19StateMachineSurface16handle_key_event
FNDA:11,_RNvMs7_NtCsadPz79N6wDl_11calypso_cli3tuiNtB5_19StateMachineSurface18from_feature_state
FNDA:9,_RNvMs7_NtCsadPz79N6wDl_11calypso_cli3tuiNtB5_19StateMachineSurface3new
FNDA:12,_RNvMs8_NtCsadPz79N6wDl_11calypso_cli3tuiNtB5_6AppTab12screen_hints
FNDA:1,_RNvMs8_NtCsadPz79N6wDl_11calypso_cli3tuiNtB5_6AppTab4next
FNDA:2,_RNvMs8_NtCsadPz79N6wDl_11calypso_cli3tuiNtB5_6AppTab4prev
FNDA:36,_RNvMs8_NtCsadPz79N6wDl_11calypso_cli3tuiNtB5_6AppTab5label
FNDA:3,_RNvMs9_NtCsadPz79N6wDl_11calypso_cli3tuiNtB5_8AppShell13with_operator
FNDA:18,_RNvMs9_NtCsadPz79N6wDl_11calypso_cli3tuiNtB5_8AppShell16handle_key_event
FNDA:4,_RNvMs9_NtCsadPz79N6wDl_11calypso_cli3tuiNtB5_8AppShell3new
FNDA:0,_RNvMs9_NtCsadPz79N6wDl_11calypso_cli3tuiNtB5_8AppShell7with_sm
FNDA:5,_RNvMs_NtCsadPz79N6wDl_11calypso_cli3tuiNtB4_15OperatorSurface13focus_session
FNDA:39,_RNvMs_NtCsadPz79N6wDl_11calypso_cli3tuiNtB4_15OperatorSurface16handle_key_event
FNDA:11,_RNvMs_NtCsadPz79N6wDl_11calypso_cli3tuiNtB4_15OperatorSurface16selected_session
FNDA:51,_RNvMs_NtCsadPz79N6wDl_11calypso_cli3tuiNtB4_15OperatorSurface18from_feature_state
FNDA:1,_RNvMs_NtCsadPz79N6wDl_11calypso_cli3tuiNtB4_15OperatorSurface27pending_clarification_count
FNDA:36,_RNvMs_NtCsadPz79N6wDl_11calypso_cli3tuiNtB4_15OperatorSurface6render
FNDA:75,_RNvNtCsadPz79N6wDl_11calypso_cli3tui11sm_pipeline
FNDA:576,_RNvNtCsadPz79N6wDl_11calypso_cli3tui13sm_step_label
FNDA:24,_RNvNtCsadPz79N6wDl_11calypso_cli3tui14sm_gate_status
FNDA:51,_RNvNtCsadPz79N6wDl_11calypso_cli3tui14workflow_label
FNDA:4,_RNvNtCsadPz79N6wDl_11calypso_cli3tui15queue_follow_up
FNDA:79,_RNvNtCsadPz79N6wDl_11calypso_cli3tui17gate_status_label
FNDA:1,_RNvNtCsadPz79N6wDl_11calypso_cli3tui18run_doctor_surface
FNDA:4,_RNvNtCsadPz79N6wDl_11calypso_cli3tui19github_review_label
FNDA:2,_RNvNtCsadPz79N6wDl_11calypso_cli3tui20answer_clarification
FNDA:1,_RNvNtCsadPz79N6wDl_11calypso_cli3tui20run_terminal_surface
FNDA:51,_RNvNtCsadPz79N6wDl_11calypso_cli3tui20session_status_label
FNDA:12,_RNvNtCsadPz79N6wDl_11calypso_cli3tui20sm_gate_group_status
FNDA:4,_RNvNtCsadPz79N6wDl_11calypso_cli3tui21evidence_status_label
FNDA:0,_RNvNtCsadPz79N6wDl_11calypso_cli3tui21placeholder_key_event
FNDA:79,_RNvNtCsadPz79N6wDl_11calypso_cli3tui23gate_group_status_label
FNDA:52,_RNvNtCsadPz79N6wDl_11calypso_cli3tui24render_workflow_pipeline
FNDA:4,_RNvNtCsadPz79N6wDl_11calypso_cli3tui25github_mergeability_label
FNDA:3,_RNvNtCsadPz79N6wDl_11calypso_cli3tui25interrupt_active_sessions
FNDA:2,_RNvNtCsadPz79N6wDl_11calypso_cli3tui30doctor_check_views_from_report
FNDA:51,_RNvNtCsadPz79N6wDl_11calypso_cli3tui35pending_clarifications_from_feature
FNDA:0,_RNvNtCsadPz79N6wDl_11calypso_cli3tui9run_watch
FNDA:0,_RNvXs6_NtCsadPz79N6wDl_11calypso_cli3tuiNtB5_19StateMachineSurfaceNtNtCs3XFJfFEDSOQ_4core7default7Default7default
FNDA:0,_RINvMs1_NtCsk43tzqYvrEx_11calypso_cli3tuiNtB6_15OperatorSurface12render_panedpEB8_
FNDA:0,_RINvMs1_NtCsk43tzqYvrEx_11calypso_cli3tuiNtB6_15OperatorSurface23render_operator_sidebarpEB8_
FNDA:0,_RINvMs1_NtCsk43tzqYvrEx_11calypso_cli3tuiNtB6_15OperatorSurface25render_operator_input_rowpEB8_
FNDA:0,_RINvMs1_NtCsk43tzqYvrEx_11calypso_cli3tuiNtB6_15OperatorSurface25render_operator_main_panepEB8_
FNDA:0,_RINvMs2_NtCsk43tzqYvrEx_11calypso_cli3tuiNtB6_13DoctorSurface12render_panedpEB8_
FNDA:0,_RINvMs7_NtCsk43tzqYvrEx_11calypso_cli3tuiNtB6_19StateMachineSurface12render_panedpEB8_
FNDA:0,_RINvMs9_NtCsk43tzqYvrEx_11calypso_cli3tuiNtB6_8AppShell12render_panedpEB8_
FNDA:0,_RINvNtCsk43tzqYvrEx_11calypso_cli3tui14run_watch_withpEB4_
FNDA:0,_RINvNtCsk43tzqYvrEx_11calypso_cli3tui17render_app_ribbonpEB4_
FNDA:0,_RINvNtCsk43tzqYvrEx_11calypso_cli3tui22render_agents_scaffoldpEB4_
FNDA:0,_RINvNtCsk43tzqYvrEx_11calypso_cli3tui22run_terminal_iterationpEB4_
FNDA:0,_RINvNtCsk43tzqYvrEx_11calypso_cli3tui23render_vertical_dividerpEB4_
FNDA:0,_RINvNtCsk43tzqYvrEx_11calypso_cli3tui25render_placeholder_screenpEB4_
FNDA:0,_RINvNtCsk43tzqYvrEx_11calypso_cli3tui33render_keybinding_ribbon_operatorpEB4_
FNDA:0,_RINvNtCsk43tzqYvrEx_11calypso_cli3tui8write_atpEB4_
FNDA:0,_RNCINvMs1_NtCsk43tzqYvrEx_11calypso_cli3tuiNtB8_15OperatorSurface25render_operator_main_panepE0Ba_
FNDA:0,_RNCINvMs2_NtCsk43tzqYvrEx_11calypso_cli3tuiNtB8_13DoctorSurface12render_panedpE0Ba_
FNDA:0,_RNCINvNtCsk43tzqYvrEx_11calypso_cli3tui14run_watch_withpE0B6_
FNDA:0,_RNCINvNtCsk43tzqYvrEx_11calypso_cli3tui14run_watch_withpEs0_0B6_
FNDA:0,_RNCINvNtCsk43tzqYvrEx_11calypso_cli3tui14run_watch_withpEs_0B6_
FNDA:0,_RNCNCNvMs7_NtCsk43tzqYvrEx_11calypso_cli3tuiNtB9_19StateMachineSurface18from_feature_state00Bb_
FNDA:0,_RNCNCNvMs7_NtCsk43tzqYvrEx_11calypso_cli3tuiNtB9_19StateMachineSurface18from_feature_state0s_0Bb_
FNDA:0,_RNCNCNvMs_NtCsk43tzqYvrEx_11calypso_cli3tuiNtB8_15OperatorSurface18from_feature_states0_00Ba_
FNDA:0,_RNCNCNvMs_NtCsk43tzqYvrEx_11calypso_cli3tuiNtB8_15OperatorSurface18from_feature_states_00Ba_
FNDA:0,_RNCNvMs4_NtCsk43tzqYvrEx_11calypso_cli3tuiNtB7_13DoctorSurface18apply_selected_fix0B9_
FNDA:0,_RNCNvMs4_NtCsk43tzqYvrEx_11calypso_cli3tuiNtB7_13DoctorSurface6render0B9_
FNDA:0,_RNCNvMs4_NtCsk43tzqYvrEx_11calypso_cli3tuiNtB7_13DoctorSurface7refresh0B9_
FNDA:0,_RNCNvMs7_NtCsk43tzqYvrEx_11calypso_cli3tuiNtB7_19StateMachineSurface12visible_rows0B9_
FNDA:0,_RNCNvMs7_NtCsk43tzqYvrEx_11calypso_cli3tuiNtB7_19StateMachineSurface12visible_rowss1_0B9_
FNDA:0,_RNCNvMs7_NtCsk43tzqYvrEx_11calypso_cli3tuiNtB7_19StateMachineSurface12visible_rowss_0B9_
FNDA:0,_RNCNvMs7_NtCsk43tzqYvrEx_11calypso_cli3tuiNtB7_19StateMachineSurface16handle_key_event0B9_
FNDA:0,_RNCNvMs7_NtCsk43tzqYvrEx_11calypso_cli3tuiNtB7_19StateMachineSurface18from_feature_state0B9_
FNDA:0,_RNCNvMs7_NtCsk43tzqYvrEx_11calypso_cli3tuiNtB7_19StateMachineSurface18from_feature_states0_0B9_
FNDA:0,_RNCNvMs7_NtCsk43tzqYvrEx_11calypso_cli3tuiNtB7_19StateMachineSurface18from_feature_states1_0B9_
FNDA:0,_RNCNvMs7_NtCsk43tzqYvrEx_11calypso_cli3tuiNtB7_19StateMachineSurface18from_feature_states_0B9_
FNDA:0,_RNCNvMs_NtCsk43tzqYvrEx_11calypso_cli3tuiNtB6_15OperatorSurface13focus_session0B8_
FNDA:0,_RNCNvMs_NtCsk43tzqYvrEx_11calypso_cli3tuiNtB6_15OperatorSurface16handle_key_event0B8_
FNDA:0,_RNCNvMs_NtCsk43tzqYvrEx_11calypso_cli3tuiNtB6_15OperatorSurface18from_feature_state0B8_
FNDA:0,_RNCNvMs_NtCsk43tzqYvrEx_11calypso_cli3tuiNtB6_15OperatorSurface18from_feature_states0_0B8_
FNDA:0,_RNCNvMs_NtCsk43tzqYvrEx_11calypso_cli3tuiNtB6_15OperatorSurface18from_feature_states1_0B8_
FNDA:0,_RNCNvMs_NtCsk43tzqYvrEx_11calypso_cli3tuiNtB6_15OperatorSurface18from_feature_states_0B8_
FNDA:0,_RNCNvNtCsk43tzqYvrEx_11calypso_cli3tui15queue_follow_up0B5_
FNDA:0,_RNCNvNtCsk43tzqYvrEx_11calypso_cli3tui18run_doctor_surface0B5_
FNDA:0,_RNCNvNtCsk43tzqYvrEx_11calypso_cli3tui20answer_clarification0B5_
FNDA:0,_RNCNvNtCsk43tzqYvrEx_11calypso_cli3tui24render_workflow_pipeline0B5_
FNDA:0,_RNCNvNtCsk43tzqYvrEx_11calypso_cli3tui24render_workflow_pipelines_0B5_
FNDA:0,_RNCNvNtCsk43tzqYvrEx_11calypso_cli3tui30doctor_check_views_from_report0B5_
FNDA:0,_RNCNvNtCsk43tzqYvrEx_11calypso_cli3tui35pending_clarifications_from_feature0B5_
FNDA:0,_RNCNvNtCsk43tzqYvrEx_11calypso_cli3tui35pending_clarifications_from_features_0B5_
FNDA:0,_RNCNvNtCsk43tzqYvrEx_11calypso_cli3tui9run_watch0B5_
FNDA:0,_RNvMNtCsk43tzqYvrEx_11calypso_cli3tuiNtB2_11InputBuffer4push
FNDA:0,_RNvMNtCsk43tzqYvrEx_11calypso_cli3tuiNtB2_11InputBuffer6as_str
FNDA:0,_RNvMNtCsk43tzqYvrEx_11calypso_cli3tuiNtB2_11InputBuffer6submit
FNDA:0,_RNvMNtCsk43tzqYvrEx_11calypso_cli3tuiNtB2_11InputBuffer9backspace
FNDA:0,_RNvMs0_NtCsk43tzqYvrEx_11calypso_cli3tuiNtB5_11PanedLayout9from_size
FNDA:0,_RNvMs3_NtCsk43tzqYvrEx_11calypso_cli3tuiNtB5_15DoctorCheckView12has_auto_fix
FNDA:0,_RNvMs4_NtCsk43tzqYvrEx_11calypso_cli3tuiNtB5_13DoctorSurface11check_count
FNDA:0,_RNvMs4_NtCsk43tzqYvrEx_11calypso_cli3tuiNtB5_13DoctorSurface16handle_key_event
FNDA:0,_RNvMs4_NtCsk43tzqYvrEx_11calypso_cli3tuiNtB5_13DoctorSurface18apply_selected_fix
FNDA:0,_RNvMs4_NtCsk43tzqYvrEx_11calypso_cli3tuiNtB5_13DoctorSurface3new
FNDA:0,_RNvMs4_NtCsk43tzqYvrEx_11calypso_cli3tuiNtB5_13DoctorSurface6render
FNDA:0,_RNvMs4_NtCsk43tzqYvrEx_11calypso_cli3tuiNtB5_13DoctorSurface7refresh
FNDA:0,_RNvMs4_NtCsk43tzqYvrEx_11calypso_cli3tuiNtB5_13DoctorSurface8selected
FNDA:0,_RNvMs5_NtCsk43tzqYvrEx_11calypso_cli3tuiNtB5_8SmStatus4icon
FNDA:0,_RNvMs7_NtCsk43tzqYvrEx_11calypso_cli3tuiNtB5_19StateMachineSurface11expand_node
FNDA:0,_RNvMs7_NtCsk43tzqYvrEx_11calypso_cli3tuiNtB5_19StateMachineSurface12visible_rows
FNDA:0,_RNvMs7_NtCsk43tzqYvrEx_11calypso_cli3tuiNtB5_19StateMachineSurface13adjust_scroll
FNDA:0,_RNvMs7_NtCsk43tzqYvrEx_11calypso_cli3tuiNtB5_19StateMachineSurface16handle_key_event
FNDA:0,_RNvMs7_NtCsk43tzqYvrEx_11calypso_cli3tuiNtB5_19StateMachineSurface18from_feature_state
FNDA:0,_RNvMs7_NtCsk43tzqYvrEx_11calypso_cli3tuiNtB5_19StateMachineSurface3new
FNDA:0,_RNvMs8_NtCsk43tzqYvrEx_11calypso_cli3tuiNtB5_6AppTab12screen_hints
FNDA:0,_RNvMs8_NtCsk43tzqYvrEx_11calypso_cli3tuiNtB5_6AppTab4next
FNDA:0,_RNvMs8_NtCsk43tzqYvrEx_11calypso_cli3tuiNtB5_6AppTab4prev
FNDA:0,_RNvMs8_NtCsk43tzqYvrEx_11calypso_cli3tuiNtB5_6AppTab5label
FNDA:0,_RNvMs9_NtCsk43tzqYvrEx_11calypso_cli3tuiNtB5_8AppShell13with_operator
FNDA:0,_RNvMs9_NtCsk43tzqYvrEx_11calypso_cli3tuiNtB5_8AppShell16handle_key_event
FNDA:0,_RNvMs9_NtCsk43tzqYvrEx_11calypso_cli3tuiNtB5_8AppShell3new
FNDA:0,_RNvMs9_NtCsk43tzqYvrEx_11calypso_cli3tuiNtB5_8AppShell7with_sm
FNDA:0,_RNvMs_NtCsk43tzqYvrEx_11calypso_cli3tuiNtB4_15OperatorSurface13focus_session
FNDA:0,_RNvMs_NtCsk43tzqYvrEx_11calypso_cli3tuiNtB4_15OperatorSurface16handle_key_event
FNDA:0,_RNvMs_NtCsk43tzqYvrEx_11calypso_cli3tuiNtB4_15OperatorSurface16selected_session
FNDA:0,_RNvMs_NtCsk43tzqYvrEx_11calypso_cli3tuiNtB4_15OperatorSurface18from_feature_state
FNDA:0,_RNvMs_NtCsk43tzqYvrEx_11calypso_cli3tuiNtB4_15OperatorSurface27pending_clarification_count
FNDA:0,_RNvMs_NtCsk43tzqYvrEx_11calypso_cli3tuiNtB4_15OperatorSurface6render
FNDA:0,_RNvNtCsk43tzqYvrEx_11calypso_cli3tui11sm_pipeline
FNDA:0,_RNvNtCsk43tzqYvrEx_11calypso_cli3tui13sm_step_label
FNDA:0,_RNvNtCsk43tzqYvrEx_11calypso_cli3tui14sm_gate_status
FNDA:0,_RNvNtCsk43tzqYvrEx_11calypso_cli3tui14workflow_label
FNDA:0,_RNvNtCsk43tzqYvrEx_11calypso_cli3tui15queue_follow_up
FNDA:0,_RNvNtCsk43tzqYvrEx_11calypso_cli3tui17gate_status_label
FNDA:0,_RNvNtCsk43tzqYvrEx_11calypso_cli3tui18run_doctor_surface
FNDA:0,_RNvNtCsk43tzqYvrEx_11calypso_cli3tui19github_review_label
FNDA:0,_RNvNtCsk43tzqYvrEx_11calypso_cli3tui20answer_clarification
FNDA:0,_RNvNtCsk43tzqYvrEx_11calypso_cli3tui20run_terminal_surface
FNDA:0,_RNvNtCsk43tzqYvrEx_11calypso_cli3tui20session_status_label
FNDA:0,_RNvNtCsk43tzqYvrEx_11calypso_cli3tui20sm_gate_group_status
FNDA:0,_RNvNtCsk43tzqYvrEx_11calypso_cli3tui21evidence_status_label
FNDA:0,_RNvNtCsk43tzqYvrEx_11calypso_cli3tui21placeholder_key_event
FNDA:0,_RNvNtCsk43tzqYvrEx_11calypso_cli3tui23gate_group_status_label
FNDA:0,_RNvNtCsk43tzqYvrEx_11calypso_cli3tui24render_workflow_pipeline
FNDA:0,_RNvNtCsk43tzqYvrEx_11calypso_cli3tui25github_mergeability_label
FNDA:0,_RNvNtCsk43tzqYvrEx_11calypso_cli3tui25interrupt_active_sessions
FNDA:0,_RNvNtCsk43tzqYvrEx_11calypso_cli3tui30doctor_check_views_from_report
FNDA:0,_RNvNtCsk43tzqYvrEx_11calypso_cli3tui35pending_clarifications_from_feature
FNDA:0,_RNvNtCsk43tzqYvrEx_11calypso_cli3tui9run_watch
FNDA:0,_RNvXs6_NtCsk43tzqYvrEx_11calypso_cli3tuiNtB5_19StateMachineSurfaceNtNtCs3XFJfFEDSOQ_4core7default7Default7default
FNDA:3,_RINvMs1_NtCsadPz79N6wDl_11calypso_cli3tuiNtB6_15OperatorSurface12render_panedINtNtCsgag4BwXrjBQ_5alloc3vec3VechEECsiuwjv5F4qQV_3tui
FNDA:3,_RINvMs1_NtCsadPz79N6wDl_11calypso_cli3tuiNtB6_15OperatorSurface23render_operator_sidebarINtNtCsgag4BwXrjBQ_5alloc3vec3VechEECsiuwjv5F4qQV_3tui
FNDA:3,_RINvMs1_NtCsadPz79N6wDl_11calypso_cli3tuiNtB6_15OperatorSurface25render_operator_input_rowINtNtCsgag4BwXrjBQ_5alloc3vec3VechEECsiuwjv5F4qQV_3tui
FNDA:3,_RINvMs1_NtCsadPz79N6wDl_11calypso_cli3tuiNtB6_15OperatorSurface25render_operator_main_paneINtNtCsgag4BwXrjBQ_5alloc3vec3VechEECsiuwjv5F4qQV_3tui
FNDA:8,_RINvMs7_NtCsadPz79N6wDl_11calypso_cli3tuiNtB6_19StateMachineSurface12render_panedINtNtCsgag4BwXrjBQ_5alloc3vec3VechEECsiuwjv5F4qQV_3tui
FNDA:3,_RINvNtCsadPz79N6wDl_11calypso_cli3tui23render_vertical_dividerINtNtCsgag4BwXrjBQ_5alloc3vec3VechEECsiuwjv5F4qQV_3tui
FNDA:3,_RINvNtCsadPz79N6wDl_11calypso_cli3tui33render_keybinding_ribbon_operatorINtNtCsgag4BwXrjBQ_5alloc3vec3VechEECsiuwjv5F4qQV_3tui
FNDA:314,_RINvNtCsadPz79N6wDl_11calypso_cli3tui8write_atINtNtCsgag4BwXrjBQ_5alloc3vec3VechEECsiuwjv5F4qQV_3tui
FNDA:2,_RNCINvMs1_NtCsadPz79N6wDl_11calypso_cli3tuiNtB8_15OperatorSurface25render_operator_main_paneINtNtCsgag4BwXrjBQ_5alloc3vec3VechEE0Csiuwjv5F4qQV_3tui
FNF:106
FNH:95
DA:35,16
DA:36,16
DA:37,16
DA:39,2
DA:40,2
DA:41,2
DA:43,9
DA:44,9
DA:45,3
DA:46,3
DA:48,6
DA:50,9
DA:52,54
DA:53,54
DA:54,54
DA:88,51
DA:89,51
DA:92,51
DA:93,51
DA:94,51
DA:95,51
DA:96,51
DA:97,4
DA:98,1
DA:100,3
DA:102,4
DA:103,4
DA:104,4
DA:105,4
DA:106,51
DA:107,51
DA:108,51
DA:109,51
DA:110,51
DA:111,79
DA:112,79
DA:114,79
DA:115,79
DA:116,79
DA:117,79
DA:118,79
DA:119,79
DA:120,79
DA:121,79
DA:122,79
DA:123,79
DA:124,79
DA:125,79
DA:126,79
DA:127,79
DA:129,79
DA:130,51
DA:131,51
DA:132,51
DA:133,51
DA:134,51
DA:135,51
DA:136,51
DA:137,51
DA:138,51
DA:139,13
DA:141,38
DA:142,38
DA:143,38
DA:144,75
DA:145,38
DA:147,51
DA:148,51
DA:149,51
DA:150,51
DA:151,51
DA:152,51
DA:153,51
DA:154,51
DA:155,51
DA:156,51
DA:159,51
DA:161,51
DA:163,36
DA:164,36
DA:165,36
DA:166,36
DA:167,36
DA:168,36
DA:169,36
DA:172,36
DA:173,36
DA:174,36
DA:178,36
DA:179,36
DA:182,36
DA:183,6
DA:185,30
DA:187,36
DA:188,36
DA:189,36
DA:195,36
DA:196,4
DA:197,4
DA:198,4
DA:199,4
DA:200,4
DA:201,32
DA:202,1
DA:203,1
DA:204,31
DA:207,36
DA:208,33
DA:209,33
DA:210,33
DA:211,85
DA:212,52
DA:213,52
DA:214,37
DA:215,26
DA:216,20
DA:218,52
DA:219,104
DA:220,52
DA:221,52
DA:222,37
DA:223,26
DA:224,20
DA:226,52
DA:227,52
DA:228,52
DA:233,3
DA:236,36
DA:237,4
DA:238,4
DA:239,4
DA:240,8
DA:241,4
DA:242,4
DA:243,4
DA:244,4
DA:245,4
DA:246,32
DA:249,36
DA:250,36
DA:251,36
DA:252,36
DA:253,5
DA:254,5
DA:255,64
DA:256,33
DA:257,33
DA:258,11
DA:259,8
DA:260,5
DA:261,3
DA:263,33
DA:264,33
DA:267,92
DA:268,59
DA:269,59
DA:273,36
DA:275,36
DA:276,4
DA:277,4
DA:278,4
DA:279,4
DA:280,32
DA:281,32
DA:282,32
DA:284,36
DA:285,36
DA:287,36
DA:288,36
DA:290,39
DA:292,39
DA:293,2
DA:294,2
DA:295,37
DA:297,37
DA:298,11
DA:299,11
DA:300,11
DA:301,11
DA:304,1
DA:305,1
DA:306,1
DA:308,6
DA:309,5
DA:310,5
DA:312,1
DA:313,1
DA:314,1
DA:315,1
DA:317,4
DA:321,1
DA:322,1
DA:326,2
DA:327,2
DA:330,5
DA:331,5
DA:334,4
DA:335,3
DA:336,3
DA:337,3
DA:338,1
DA:339,1
DA:340,1
DA:341,4
DA:344,8
DA:345,4
DA:347,4
DA:348,4
DA:349,4
DA:350,4
DA:351,8
DA:353,0
DA:355,39
DA:358,1
DA:359,1
DA:360,1
DA:364,5
DA:365,5
DA:366,5
DA:367,5
DA:368,7
DA:369,5
DA:372,11
DA:373,11
DA:374,11
DA:420,1
DA:421,1
DA:422,1
DA:423,1
DA:425,1
DA:426,1
DA:427,1
DA:428,1
DA:429,1
DA:430,1
DA:431,1
DA:432,1
DA:433,1
DA:434,1
DA:435,1
DA:436,1
DA:437,1
DA:440,1
DA:441,1
DA:442,1
DA:443,1
DA:444,1
DA:445,1
DA:446,1
DA:447,1
DA:448,0
DA:449,1
DA:450,1
DA:451,1
DA:452,1
DA:453,1
DA:455,1
DA:456,1
DA:458,1
DA:459,1
DA:460,1
DA:461,1
DA:462,1
DA:463,1
DA:464,1
DA:465,0
DA:466,1
DA:467,1
DA:468,1
DA:469,1
DA:470,1
DA:471,1
DA:472,0
DA:474,1
DA:475,1
DA:476,1
DA:477,1
DA:478,1
DA:479,1
DA:508,14
DA:509,14
DA:510,14
DA:511,14
DA:512,14
DA:513,14
DA:514,14
DA:516,14
DA:517,13
DA:519,1
DA:520,1
DA:523,14
DA:525,14
DA:526,1
DA:527,1
DA:528,1
DA:530,13
DA:531,9
DA:532,2
DA:533,2
DA:534,2
DA:535,2
DA:536,1
DA:538,1
DA:541,0
DA:542,0
DA:543,0
DA:544,0
DA:545,0
DA:546,1
DA:547,1
DA:548,1
DA:549,1
DA:550,1
DA:551,1
DA:553,0
DA:556,13
DA:557,14
DA:587,4
DA:588,4
DA:589,2
DA:590,4
DA:593,4
DA:594,2
DA:595,2
DA:597,2
DA:599,4
DA:606,2
DA:607,2
DA:608,2
DA:609,2
DA:610,2
DA:612,1
DA:613,1
DA:615,1
DA:617,2
DA:621,3
DA:622,4
DA:623,2
DA:624,4
DA:626,2
DA:627,2
DA:628,2
DA:629,2
DA:631,3
DA:634,51
DA:635,51
DA:636,51
DA:637,51
DA:638,51
DA:639,51
DA:640,5
DA:641,5
DA:642,5
DA:643,51
DA:644,51
DA:668,51
DA:669,51
DA:670,51
DA:675,52
DA:688,318
DA:689,52
DA:690,52
DA:691,52
DA:692,199
DA:693,441
DA:694,199
DA:695,177
DA:696,468
DA:697,52
DA:699,52
DA:701,52
DA:702,52
DA:703,49
DA:704,49
DA:706,52
DA:708,79
DA:709,79
DA:710,20
DA:711,30
DA:712,23
DA:713,6
DA:715,79
DA:717,79
DA:718,79
DA:719,30
DA:720,20
DA:721,6
DA:722,23
DA:724,79
DA:726,51
DA:727,51
DA:728,33
DA:729,4
DA:730,9
DA:731,3
DA:732,2
DA:734,51
DA:736,4
DA:737,4
DA:738,2
DA:739,1
DA:740,1
DA:742,4
DA:744,4
DA:745,4
DA:746,1
DA:747,1
DA:748,1
DA:749,1
DA:751,4
DA:757,0
DA:758,0
DA:759,0
DA:760,0
DA:762,0
DA:765,0
DA:766,0
DA:767,0
DA:769,0
DA:770,0
DA:771,0
DA:772,0
DA:773,0
DA:774,0
DA:775,0
DA:777,4
DA:778,4
DA:779,1
DA:780,1
DA:781,1
DA:782,1
DA:784,4
DA:824,13
DA:825,13
DA:826,13
DA:828,13
DA:829,13
DA:830,13
DA:831,13
DA:833,13
DA:834,13
DA:835,13
DA:836,13
DA:837,13
DA:838,13
DA:839,13
DA:840,13
DA:841,13
DA:842,13
DA:843,13
DA:844,13
DA:845,13
DA:846,13
DA:847,13
DA:852,1188
DA:853,1188
DA:854,1188
DA:855,1188
DA:856,1188
DA:857,1188
DA:858,1188
DA:859,1188
DA:861,1188
DA:862,1188
DA:863,164
DA:864,164
DA:866,1024
DA:868,1188
DA:871,16
DA:872,384
DA:873,384
DA:874,384
DA:876,16
DA:877,16
DA:886,16
DA:887,16
DA:888,16
DA:889,16
DA:890,16
DA:891,16
DA:892,16
DA:893,16
DA:895,16
DA:896,16
DA:897,16
DA:898,16
DA:899,16
DA:900,16
DA:903,16
DA:906,16
DA:907,16
DA:908,16
DA:909,16
DA:910,16
DA:911,16
DA:913,16
DA:914,16
DA:915,16
DA:916,16
DA:919,16
DA:921,16
DA:922,16
DA:925,16
DA:926,16
DA:929,16
DA:930,13
DA:932,3
DA:934,16
DA:935,16
DA:936,16
DA:942,16
DA:943,0
DA:944,0
DA:945,0
DA:946,0
DA:947,0
DA:948,16
DA:949,0
DA:950,0
DA:951,16
DA:954,16
DA:955,16
DA:956,16
DA:957,16
DA:958,35
DA:959,19
DA:960,19
DA:961,3
DA:962,0
DA:963,0
DA:965,19
DA:966,38
DA:967,19
DA:968,19
DA:969,3
DA:970,0
DA:971,0
DA:973,19
DA:974,19
DA:975,19
DA:980,0
DA:983,16
DA:984,16
DA:985,7
DA:986,7
DA:987,7
DA:988,7
DA:989,0
DA:990,0
DA:991,0
DA:993,7
DA:994,7
DA:997,7
DA:998,7
DA:999,0
DA:1000,0
DA:1001,14
DA:1002,7
DA:1003,7
DA:1007,9
DA:1008,9
DA:1009,9
DA:1010,0
DA:1011,0
DA:1012,19
DA:1013,10
DA:1014,10
DA:1015,9
DA:1016,4
DA:1017,4
DA:1018,4
DA:1020,10
DA:1021,10
DA:1024,21
DA:1025,11
DA:1026,11
DA:1033,16
DA:1034,16
DA:1035,289
DA:1036,289
DA:1037,1
DA:1038,288
DA:1039,288
DA:1042,16
DA:1043,64
DA:1044,64
DA:1046,16
DA:1047,16
DA:1049,16
DA:1050,16
DA:1051,16
DA:1052,16
DA:1053,16
DA:1054,16
DA:1055,16
DA:1056,16
DA:1058,16
DA:1059,16
DA:1060,16
DA:1061,16
DA:1063,16
DA:1065,16
DA:1068,16
DA:1069,0
DA:1070,0
DA:1071,0
DA:1072,0
DA:1074,19
DA:1075,19
DA:1076,0
DA:1077,19
DA:1078,19
DA:1079,7
DA:1081,12
DA:1083,19
DA:1084,19
DA:1085,16
DA:1086,4
DA:1087,4
DA:1088,4
DA:1090,19
DA:1091,19
DA:1092,19
DA:1097,16
DA:1098,16
DA:1099,16
DA:1100,11
DA:1101,11
DA:1102,11
DA:1103,11
DA:1104,11
DA:1105,11
DA:1106,0
DA:1107,11
DA:1108,5
DA:1111,16
DA:1112,0
DA:1113,0
DA:1114,0
DA:1115,0
DA:1116,0
DA:1117,0
DA:1121,27
DA:1122,11
DA:1123,0
DA:1124,11
DA:1125,11
DA:1126,11
DA:1127,11
DA:1131,295
DA:1132,279
DA:1133,279
DA:1137,16
DA:1138,16
DA:1139,16
DA:1140,16
DA:1141,16
DA:1142,16
DA:1143,16
DA:1144,0
DA:1145,0
DA:1147,16
DA:1148,16
DA:1150,16
DA:1151,16
DA:1152,16
DA:1153,16
DA:1154,16
DA:1155,16
DA:1156,0
DA:1158,16
DA:1160,16
DA:1161,16
DA:1164,16
DA:1165,16
DA:1166,16
DA:1167,16
DA:1168,16
DA:1169,16
DA:1170,3
DA:1172,13
DA:1174,16
DA:1175,16
DA:1176,16
DA:1185,6
DA:1186,6
DA:1187,6
DA:1189,6
DA:1190,6
DA:1191,6
DA:1192,48
DA:1193,6
DA:1194,6
DA:1197,6
DA:1198,6
DA:1201,6
DA:1202,6
DA:1203,0
DA:1204,6
DA:1205,6
DA:1208,6
DA:1209,6
DA:1210,0
DA:1211,6
DA:1212,6
DA:1215,6
DA:1216,6
DA:1217,0
DA:1218,6
DA:1221,6
DA:1222,48
DA:1223,48
DA:1224,0
DA:1225,48
DA:1226,48
DA:1227,48
DA:1228,42
DA:1230,6
DA:1232,48
DA:1233,0
DA:1235,48
DA:1237,48
DA:1238,48
DA:1240,48
DA:1241,48
DA:1242,48
DA:1243,0
DA:1244,48
DA:1248,6
DA:1249,6
DA:1250,6
DA:1251,6
DA:1252,0
DA:1253,6
DA:1254,6
DA:1255,6
DA:1257,6
DA:1258,6
DA:1259,6
DA:1260,0
DA:1261,6
DA:1262,0
DA:1263,6
DA:1264,6
DA:1265,6
DA:1267,0
DA:1269,6
DA:1270,6
DA:1271,0
DA:1272,6
DA:1273,0
DA:1275,0
DA:1276,0
DA:1277,6
DA:1278,6
DA:1279,0
DA:1281,0
DA:1282,0
DA:1283,6
DA:1284,6
DA:1285,1
DA:1287,1
DA:1288,1
DA:1289,5
DA:1290,0
DA:1293,47
DA:1294,41
DA:1295,41
DA:1298,6
DA:1299,6
DA:1319,68
DA:1320,68
DA:1321,68
DA:1336,14
DA:1337,14
DA:1338,14
DA:1339,14
DA:1340,14
DA:1341,14
DA:1342,14
DA:1343,14
DA:1344,14
DA:1347,1
DA:1348,1
DA:1349,1
DA:1350,1
DA:1351,1
DA:1352,1
DA:1353,1
DA:1354,1
DA:1355,0
DA:1356,1
DA:1357,1
DA:1360,5
DA:1361,5
DA:1362,5
DA:1363,5
DA:1364,20
DA:1365,5
DA:1366,5
DA:1368,5
DA:1369,5
DA:1370,5
DA:1371,5
DA:1372,5
DA:1375,5
DA:1376,5
DA:1377,5
DA:1380,20
DA:1381,20
DA:1382,20
DA:1383,11
DA:1385,9
DA:1387,20
DA:1388,4
DA:1390,16
DA:1392,20
DA:1395,5
DA:1396,5
DA:1397,5
DA:1398,5
DA:1399,5
DA:1401,5
DA:1402,4
DA:1404,1
DA:1406,5
DA:1407,5
DA:1408,1
DA:1409,4
DA:1410,5
DA:1411,1
DA:1412,4
DA:1413,0
DA:1415,5
DA:1416,0
DA:1417,0
DA:1418,5
DA:1420,5
DA:1421,5
DA:1422,5
DA:1423,5
DA:1425,5
DA:1427,5
DA:1428,5
DA:1431,17
DA:1432,17
DA:1433,17
DA:1434,17
DA:1435,17
DA:1438,17
DA:1439,2
DA:1440,2
DA:1441,2
DA:1443,2
DA:1444,15
DA:1446,15
DA:1448,4
DA:1449,3
DA:1450,3
DA:1451,4
DA:1454,6
DA:1455,5
DA:1456,5
DA:1457,6
DA:1460,1
DA:1461,1
DA:1464,1
DA:1465,1
DA:1467,3
DA:1468,0
DA:1470,17
DA:1472,1
DA:1473,1
DA:1474,0
DA:1476,1
DA:1477,1
DA:1478,1
DA:1479,1
DA:1481,0
DA:1482,0
DA:1483,0
DA:1484,0
DA:1485,0
DA:1489,0
DA:1490,1
DA:1493,6
DA:1494,6
DA:1495,6
DA:1498,2
DA:1499,2
DA:1500,2
DA:1509,2
DA:1510,2
DA:1511,2
DA:1512,2
DA:1513,2
DA:1514,16
DA:1515,16
DA:1516,16
DA:1517,16
DA:1518,16
DA:1519,16
DA:1520,2
DA:1521,2
DA:1526,75
DA:1527,75
DA:1528,75
DA:1529,75
DA:1530,75
DA:1531,75
DA:1532,75
DA:1533,75
DA:1534,75
DA:1535,75
DA:1536,75
DA:1537,75
DA:1538,75
DA:1540,576
DA:1541,576
DA:1542,64
DA:1543,64
DA:1544,64
DA:1545,64
DA:1546,64
DA:1547,64
DA:1548,64
DA:1549,64
DA:1550,64
DA:1551,0
DA:1552,0
DA:1553,0
DA:1554,0
DA:1556,576
DA:1570,125
DA:1571,125
DA:1572,89
DA:1573,11
DA:1574,22
DA:1575,2
DA:1576,0
DA:1577,1
DA:1579,125
DA:1656,0
DA:1657,0
DA:1658,0
DA:1663,9
DA:1664,9
DA:1665,9
DA:1666,9
DA:1667,9
DA:1668,9
DA:1669,9
DA:1670,9
DA:1671,9
DA:1672,9
DA:1673,9
DA:1676,11
DA:1677,11
DA:1678,11
DA:1679,11
DA:1680,12
DA:1681,12
DA:1682,12
DA:1683,12
DA:1684,24
DA:1685,12
DA:1687,12
DA:1688,12
DA:1689,12
DA:1690,12
DA:1691,12
DA:1692,12
DA:1693,24
DA:1694,24
DA:1695,24
DA:1696,12
DA:1697,12
DA:1699,12
DA:1700,11
DA:1702,11
DA:1703,11
DA:1704,11
DA:1705,11
DA:1706,10
DA:1707,0
DA:1708,10
DA:1711,10
DA:1712,11
DA:1715,11
DA:1716,1
DA:1717,0
DA:1718,10
DA:1720,11
DA:1721,73
DA:1724,11
DA:1725,0
DA:1727,11
DA:1730,11
DA:1731,11
DA:1732,11
DA:1733,11
DA:1734,11
DA:1735,11
DA:1736,11
DA:1737,11
DA:1738,11
DA:1741,11
DA:1742,9
DA:1743,9
DA:1744,9
DA:1745,55
DA:1746,9
DA:1747,2
DA:1749,11
DA:1750,11
DA:1753,64
DA:1754,64
DA:1755,64
DA:1756,2
DA:1757,0
DA:1758,62
DA:1760,64
DA:1761,64
DA:1764,64
DA:1765,2
DA:1767,194
DA:1770,64
DA:1772,576
DA:1773,576
DA:1774,576
DA:1776,576
DA:1777,132
DA:1778,444
DA:1779,62
DA:1781,382
DA:1784,576
DA:1785,576
DA:1787,576
DA:1788,62
DA:1790,514
DA:1793,576
DA:1794,576
DA:1796,576
DA:1797,576
DA:1798,576
DA:1799,576
DA:1800,576
DA:1801,576
DA:1804,576
DA:1805,25
DA:1806,25
DA:1807,25
DA:1808,25
DA:1809,25
DA:1810,25
DA:1811,25
DA:1812,25
DA:1813,25
DA:1814,25
DA:1815,25
DA:1816,25
DA:1818,25
DA:1819,4
DA:1820,4
DA:1821,4
DA:1822,4
DA:1823,4
DA:1824,4
DA:1825,4
DA:1826,4
DA:1827,4
DA:1828,4
DA:1829,4
DA:1830,4
DA:1831,4
DA:1832,4
DA:1833,4
DA:1834,23
DA:1836,553
DA:1840,64
DA:1841,1
DA:1842,1
DA:1843,1
DA:1844,1
DA:1845,1
DA:1846,1
DA:1847,1
DA:1848,1
DA:1849,1
DA:1850,1
DA:1851,63
DA:1852,64
DA:1853,1
DA:1854,1
DA:1855,1
DA:1856,1
DA:1857,1
DA:1858,1
DA:1859,1
DA:1860,1
DA:1861,1
DA:1862,1
DA:1863,63
DA:1865,64
DA:1866,64
DA:1869,13
DA:1871,13
DA:1872,13
DA:1873,13
DA:1875,13
DA:1876,13
DA:1879,13
DA:1880,13
DA:1881,0
DA:1882,13
DA:1883,13
DA:1884,13
DA:1887,13
DA:1888,13
DA:1889,0
DA:1890,13
DA:1892,13
DA:1893,13
DA:1895,13
DA:1896,125
DA:1897,125
DA:1898,0
DA:1899,125
DA:1900,125
DA:1901,0
DA:1902,125
DA:1903,125
DA:1904,0
DA:1905,125
DA:1907,125
DA:1908,13
DA:1910,112
DA:1912,125
DA:1913,8
DA:1915,117
DA:1917,125
DA:1921,125
DA:1922,3
DA:1923,0
DA:1925,3
DA:1927,122
DA:1928,1
DA:1930,121
DA:1933,125
DA:1934,125
DA:1937,125
DA:1942,125
DA:1943,125
DA:1946,122
DA:1947,109
DA:1948,109
DA:1951,13
DA:1952,13
DA:1955,42
DA:1956,42
DA:1957,42
DA:1959,42
DA:1961,3
DA:1962,2
DA:1963,2
DA:1964,2
DA:1965,3
DA:1968,24
DA:1969,12
DA:1970,12
DA:1971,12
DA:1972,24
DA:1976,4
DA:1977,4
DA:1978,3
DA:1979,3
DA:1980,3
DA:1981,3
DA:1982,4
DA:1986,6
DA:1987,1
DA:1988,1
DA:1989,5
DA:1990,3
DA:1991,3
DA:1993,2
DA:1998,4
DA:1999,4
DA:2000,4
DA:2001,4
DA:2003,1
DA:2004,0
DA:2006,42
DA:2008,3
DA:2009,3
DA:2010,1
DA:2011,1
DA:2012,1
DA:2013,1
DA:2014,1
DA:2015,2
DA:2016,2
DA:2017,2
DA:2018,0
DA:2020,3
DA:2023,14
DA:2026,14
DA:2027,0
DA:2028,14
DA:2029,0
DA:2030,14
DA:2031,14
DA:2032,0
DA:2033,14
DA:2034,14
DA:2037,24
DA:2038,24
DA:2039,11
DA:2040,10
DA:2041,2
DA:2042,1
DA:2044,24
DA:2046,12
DA:2047,12
DA:2048,1
DA:2049,9
DA:2050,0
DA:2051,2
DA:2053,12
DA:2068,36
DA:2069,36
DA:2070,12
DA:2071,12
DA:2072,12
DA:2074,36
DA:2077,12
DA:2078,12
DA:2079,6
DA:2080,5
DA:2081,1
DA:2083,12
DA:2085,1
DA:2086,1
DA:2087,1
DA:2088,0
DA:2089,0
DA:2091,1
DA:2093,2
DA:2094,2
DA:2095,0
DA:2096,1
DA:2097,1
DA:2099,2
DA:2130,4
DA:2131,4
DA:2132,4
DA:2133,4
DA:2134,4
DA:2135,4
DA:2136,4
DA:2137,4
DA:2139,0
DA:2140,0
DA:2141,0
DA:2142,0
DA:2144,3
DA:2145,3
DA:2146,3
DA:2147,3
DA:2149,18
DA:2151,18
DA:2152,2
DA:2153,16
DA:2155,16
DA:2157,2
DA:2158,2
DA:2161,1
DA:2162,1
DA:2164,13
DA:2167,13
DA:2168,5
DA:2169,4
DA:2170,1
DA:2172,5
DA:2173,3
DA:2174,0
DA:2175,2
DA:2176,2
DA:2177,2
DA:2178,1
DA:2179,1
DA:2180,2
DA:2184,3
DA:2185,3
DA:2186,2
DA:2187,0
DA:2188,1
DA:2189,0
DA:2190,0
DA:2192,0
DA:2195,0
DA:2199,18
DA:2202,12
DA:2203,12
DA:2204,6
DA:2205,5
DA:2207,1
DA:2208,0
DA:2210,1
DA:2215,12
DA:2216,12
DA:2217,12
DA:2221,12
DA:2222,12
DA:2223,12
DA:2224,12
DA:2225,12
DA:2226,12
DA:2227,36
DA:2228,36
DA:2229,24
DA:2230,24
DA:2231,36
DA:2232,36
DA:2233,36
DA:2235,12
DA:2236,12
DA:2237,12
DA:2239,12
DA:2240,12
DA:2243,0
DA:2244,0
DA:2245,0
DA:2246,0
DA:2248,0
DA:2251,1
DA:2252,1
DA:2253,1
DA:2254,1
DA:2255,1
DA:2256,1
DA:2257,1
DA:2258,1
DA:2259,1
DA:2262,1
DA:2263,1
DA:2264,0
DA:2265,1
DA:2266,1
DA:2267,1
DA:2270,1
DA:2271,1
DA:2272,0
DA:2273,1
DA:2274,1
DA:2275,17
DA:2276,17
DA:2278,1
DA:2279,1
DA:2281,1
DA:2282,1
DA:2283,1
DA:2284,1
DA:2285,1
DA:2286,1
DA:2288,1
DA:2348,1
DA:2351,1
DA:2352,1
DA:2353,1
DA:2354,1
DA:2356,1
DA:2357,1
DA:2360,1
DA:2361,1
DA:2363,1
DA:2365,1
DA:2366,1
DA:2367,1
DA:2368,1
DA:2369,1
DA:2370,1
DA:2372,1
DA:2373,1
DA:2375,1
DA:2376,1
DA:2377,1
DA:2378,1
DA:2379,1
DA:2380,1
DA:2381,1
DA:2382,1
DA:2383,1
DA:2386,13
DA:2387,13
DA:2388,12
DA:2390,1
DA:2391,1
DA:2394,13
DA:2396,13
DA:2397,1
DA:2398,1
DA:2399,1
DA:2400,12
DA:2401,12
DA:2402,1
DA:2403,11
DA:2405,0
DA:2410,1
DA:2411,1
DA:2413,1
DA:2414,1
DA:2416,1
DA:2417,1
BRF:0
BRH:0
LF:1443
LH:1297
end_of_record
SF:/home/lucas/calypso/.claude/worktrees/agent-a62ed768/cli/src/workflows.rs
FN:314,_RNvNtCsadPz79N6wDl_11calypso_cli9workflows11content_for
FN:314,_RNvNtCsk43tzqYvrEx_11calypso_cli9workflows11content_for
FNDA:41,_RNvNtCsadPz79N6wDl_11calypso_cli9workflows11content_for
FNDA:0,_RNvNtCsk43tzqYvrEx_11calypso_cli9workflows11content_for
FNF:1
FNH:1
DA:314,41
DA:315,41
DA:316,41
DA:317,33
DA:318,25
DA:319,19
DA:320,13
DA:321,7
DA:322,0
DA:324,41
BRF:0
BRH:0
LF:10
LH:9
end_of_record